ccopy_reg
_reconstructor
p0
(cnetworkx.classes.digraph
DiGraph
p1
c__builtin__
object
p2
Ntp3
Rp4
(dp5
S'adjlist_inner_dict_factory'
p6
c__builtin__
dict
p7
sS'node_dict_factory'
p8
g7
sS'edge_attr_dict_factory'
p9
g7
sS'_node'
p10
(dp11
Vpyelf
p12
(dp13
sVsep
p14
(dp15
sVblitz-hash
p16
(dp17
sVcffi
p18
(dp19
sVyamlenc
p20
(dp21
sVtbs-sdk
p22
(dp23
sVwarmap.tm
p24
(dp25
sVsix
p26
(dp27
sVvibrationtesting
p28
(dp29
sVfeedparser
p30
(dp31
sVreadycloud
p32
(dp33
sVdjango-konst
p34
(dp35
sVcertifi
p36
(dp37
sVnumpy
p38
(dp39
sVsleekxmpp
p40
(dp41
sVPyYAML
p42
(dp43
sVpyasn1
p44
(dp45
sVcryptography
p46
(dp47
sVpycparser
p48
(dp49
sVurllib3
p50
(dp51
sVDjango
p52
(dp53
sVbeacon
p54
(dp55
sVpytz
p56
(dp57
sVfuture
p58
(dp59
sVpyasn1-modules
p60
(dp61
sVrequests
p62
(dp63
sVbitrix24-python-sdk
p64
(dp65
sVpyOpenSSL
p66
(dp67
sVoauth_provider
p68
(dp69
sVbcrypt
p70
(dp71
sVbotz
p72
(dp73
sVchardet
p74
(dp75
sVdnspython
p76
(dp77
sVidna
p78
(dp79
sVmultidimensional-urlencode
p80
(dp81
sVsewer
p82
(dp83
ssS'graph'
p84
(dp85
sS'_pred'
p86
(dp87
g12
(dp88
sg14
(dp89
sg16
(dp90
sg18
(dp91
g70
(dp92
ssg20
(dp93
sg22
(dp94
sg24
(dp95
sg26
(dp96
g66
(dp97
sg54
(dp98
sg70
(dp99
ssg28
(dp100
sg30
(dp101
g72
(dp102
ssg32
(dp103
sg34
(dp104
sg36
(dp105
g62
(dp106
sg50
(dp107
ssg38
(dp108
g28
(dp109
sg14
(dp110
ssg40
(dp111
g72
(dp112
ssg42
(dp113
g20
(dp114
ssg44
(dp115
g72
(dp116
sg60
(dp117
ssg46
(dp118
g66
(dp119
sg82
(dp120
ssg48
(dp121
g18
(dp122
ssg50
(dp123
g62
(dp124
ssg52
(dp125
g34
(dp126
ssg54
(dp127
sg56
(dp128
g52
(dp129
ssg58
(dp130
g54
(dp131
ssg60
(dp132
g72
(dp133
ssg62
(dp134
g82
(dp135
sg32
(dp136
sg64
(dp137
ssg64
(dp138
sg66
(dp139
g82
(dp140
ssg68
(dp141
sg70
(dp142
g52
(dp143
ssg72
(dp144
sg74
(dp145
g62
(dp146
ssg76
(dp147
g72
(dp148
ssg78
(dp149
g76
(dp150
sg50
(dp151
sg62
(dp152
ssg80
(dp153
g64
(dp154
ssg82
(dp155
ssS'_succ'
p156
(dp157
g12
(dp158
sg14
(dp159
g38
g110
ssg16
(dp160
sg18
(dp161
g48
g122
ssg20
(dp162
g42
g114
ssg22
(dp163
sg24
(dp164
sg26
(dp165
sg28
(dp166
Vnumpy
p167
g109
ssg30
(dp168
sg32
(dp169
Vrequests
p170
g136
ssg34
(dp171
g52
g126
ssg36
(dp172
sg38
(dp173
sg40
(dp174
sg42
(dp175
sg44
(dp176
sg46
(dp177
sg48
(dp178
sg50
(dp179
Vcertifi
p180
g107
sVidna
p181
g151
ssg52
(dp182
g56
g129
sg70
g143
ssg54
(dp183
g58
g131
sVsix
p184
g98
ssg56
(dp185
sg58
(dp186
sg60
(dp187
Vpyasn1
p188
g117
ssg62
(dp189
g74
g146
sg36
g106
sg78
g152
sg50
g124
ssg64
(dp190
g80
g154
sVrequests
p191
g137
ssg66
(dp192
g26
g97
sVcryptography
p193
g119
ssg68
(dp194
sg70
(dp195
Vsix
p196
g99
sg18
g92
ssg72
(dp197
g44
g116
sg76
g148
sg30
g102
sg60
g133
sg40
g112
ssg74
(dp198
sg76
(dp199
Vidna
p200
g150
ssg78
(dp201
sg80
(dp202
sg82
(dp203
g66
g140
sg62
g135
sg46
g120
sssS'_adj'
p204
g157
sS'adjlist_outer_dict_factory'
p205
g7
sb.