ccopy_reg
_reconstructor
p0
(cnetworkx.classes.digraph
DiGraph
p1
c__builtin__
object
p2
Ntp3
Rp4
(dp5
S'adjlist_inner_dict_factory'
p6
c__builtin__
dict
p7
sS'node_dict_factory'
p8
g7
sS'edge_attr_dict_factory'
p9
g7
sS'_node'
p10
(dp11
Vnl.jqno.equalsverifier/equalsverifier
p12
(dp13
sVcom.google.truth.extensions/truth-java8-extension
p14
(dp15
sVorg.springframework/spring-aop
p16
(dp17
sVorg.reactivestreams/reactive-streams-examples
p18
(dp19
sVorg.databene/contiperf
p20
(dp21
sVcom.jayway.jsonpath/json-path
p22
(dp23
sVjavassist/javassist
p24
(dp25
sVcom.typesafe.play/play_2.12
p26
(dp27
sVcommons-lang/commons-lang
p28
(dp29
sVjavax.cache/cache-api
p30
(dp31
sVorg.jboss.marshalling/jboss-marshalling-river
p32
(dp33
sVorg.scala-js/scalajs-stubs_2.12
p34
(dp35
sVcom.fasterxml.woodstox/woodstox-core
p36
(dp37
sVorg.skinny-framework/skinny-json_2.10
p38
(dp39
sVorg.apache.lucene/lucene-analyzers-common
p40
(dp41
sVjavax.money/money-api
p42
(dp43
sVcom.google.auto.service/auto-service
p44
(dp45
sVorg.specs2/specs2-matcher-extra_2.12
p46
(dp47
sVorg.json4s/json4s-jackson_2.10
p48
(dp49
sVorg.assertj/assertj-core
p50
(dp51
sVorg.hamcrest/hamcrest-library
p52
(dp53
sVorg.checkerframework/checker-compat-qual
p54
(dp55
sVorg.quartz-scheduler/quartz
p56
(dp57
sVcom.hazelcast/hazelcast-all
p58
(dp59
sVio.netty/netty-transport
p60
(dp61
sVorg.skinny-framework/skinny-micro-test_2.10
p62
(dp63
sVcom.typesafe.play/play-ws_2.12
p64
(dp65
sVorg.slf4j/slf4j-jdk14
p66
(dp67
sVjavax.activation/javax.activation-api
p68
(dp69
sVaopalliance/aopalliance
p70
(dp71
sVorg.ops4j.pax.exam/pax-exam-link-mvn
p72
(dp73
sVlog4j/log4j
p74
(dp75
sVjavax.servlet.jsp/jsp-api
p76
(dp77
sVorg.apache.lucene/lucene-core
p78
(dp79
sVcom.novocode/junit-interface
p80
(dp81
sVcom.netflix.archaius/archaius-core
p82
(dp83
sVjavax.inject/javax.inject-tck
p84
(dp85
sVorg.scalikejdbc/scalikejdbc-interpolation_2.10
p86
(dp87
sVorg.skinny-framework/skinny-micro-scalate_2.10
p88
(dp89
sVcom.sun/tools
p90
(dp91
sVorg.springframework/spring-context-support
p92
(dp93
sVcom.google.inject.extensions/guice-assistedinject
p94
(dp95
sVnet.minidev/accessors-smart
p96
(dp97
sVorg.slf4j/slf4j-api
p98
(dp99
sVjavax.ejb/javax.ejb-api
p100
(dp101
sVcom.fasterxml.jackson.core/jackson-core
p102
(dp103
sVorg.hibernate/hibernate-entitymanager
p104
(dp105
sVorg.codehaus.fabric3.api/commonj
p106
(dp107
sVorg.mockito/mockito-all
p108
(dp109
sVorg.easytesting/fest-assert
p110
(dp111
sVorg.apache.geronimo.specs/geronimo-jms_1.1_spec
p112
(dp113
sVlogkit/logkit
p114
(dp115
sVcom.thoughtworks.paranamer/paranamer
p116
(dp117
sVcom.github.ben-manes.caffeine/caffeine
p118
(dp119
sVcom.fasterxml.jackson.core/jackson-databind
p120
(dp121
sVorg.khronos/opengl-api
p122
(dp123
sVorg.testng/testng
p124
(dp125
sVio.projectreactor/reactor-core
p126
(dp127
sVcom.carrotsearch.randomizedtesting/junit4-ant
p128
(dp129
sVorg.ops4j.pax.exam/pax-exam-link-assembly
p130
(dp131
sVjline/jline
p132
(dp133
sVorg.springframework/spring-tx
p134
(dp135
sVcom.typesafe.play/play-json_2.12
p136
(dp137
sVtomcat/naming-common
p138
(dp139
sVcom.google.code.findbugs/jsr305
p140
(dp141
sVnet.java.dev.jna/jna
p142
(dp143
sVorg.eclipse.jetty/jetty-servlet
p144
(dp145
sVorg.slf4j/slf4j-log4j12
p146
(dp147
sVorg.json/json
p148
(dp149
sVcom.typesafe.akka/akka-parsing_2.12
p150
(dp151
sVcom.google.auto.value/auto-value
p152
(dp153
sVorg.reactivestreams/reactive-streams-tck
p154
(dp155
sVjavax.servlet/servlet-api
p156
(dp157
sVcom.chuusai/shapeless_2.12
p158
(dp159
sVio.spray/spray-json_2.12
p160
(dp161
sVjavax.transaction/javax.transaction-api
p162
(dp163
sVorg.hamcrest/hamcrest-all
p164
(dp165
sVorg.objenesis/objenesis
p166
(dp167
sVcommons-io/commons-io
p168
(dp169
sVorg.springframework/spring-beans
p170
(dp171
sVjavax.transaction/jta
p172
(dp173
sVcom.github.dblock.waffle/waffle-jna
p174
(dp175
sVcom.typesafe/config
p176
(dp177
sVcom.google.auto.value/auto-value-annotations
p178
(dp179
sVjavax.inject/javax.inject
p180
(dp181
sVorg.apache.velocity/velocity-tools
p182
(dp183
sVcom.typesafe/ssl-config-core_2.12
p184
(dp185
sVorg.mockito/mockito-core
p186
(dp187
sVcom.typesafe.netty/netty-reactive-streams
p188
(dp189
sVorg.bouncycastle/bcprov-jdk15on
p190
(dp191
sVcom.h2database/h2
p192
(dp193
sVorg.springframework/spring-core
p194
(dp195
sVcglib/cglib
p196
(dp197
sVorg.skinny-framework/skinny-common_2.10
p198
(dp199
sVorg.json4s/json4s-ast_2.10
p200
(dp201
sVorg.scalamacros/quasiquotes_2.10
p202
(dp203
sVorg.apereo.cas/cas-server-support-pm-rest
p204
(dp205
sVorg.scalaz/scalaz-effect_2.10
p206
(dp207
sVorg.jboss.marshalling/jboss-marshalling-serial
p208
(dp209
sVcom.google.inject/guice
p210
(dp211
sVcom.google.guava/guava
p212
(dp213
sVxerces/xmlParserAPIs
p214
(dp215
sVorg.eclipse.jetty/jetty-server
p216
(dp217
sVorg.hibernate/hibernate-core
p218
(dp219
sVnet.java.dev.jna/jna-platform
p220
(dp221
sVnet.sf.jopt-simple/jopt-simple
p222
(dp223
sVorg.springframework/spring-expression
p224
(dp225
sVnet.bytebuddy/byte-buddy
p226
(dp227
sVorg.scalikejdbc/scalikejdbc-syntax-support-macro_2.10
p228
(dp229
sVorg.skinny-framework/skinny-velocity_2.10
p230
(dp231
sVcom.ning/compress-lzf
p232
(dp233
sVorg.codehaus.groovy/groovy-xml
p234
(dp235
sVorg.skinny-framework/skinny-orm_2.10
p236
(dp237
sVorg.codehaus.jettison/jettison
p238
(dp239
sVjavax.xml.rpc/javax.xml.rpc-api
p240
(dp241
sVcom.google.gwt/gwt-user
p242
(dp243
sVorg.osgi/org.osgi.enterprise
p244
(dp245
sVorg.skinny-framework/skinny-validator_2.10
p246
(dp247
sVorg.javassist/javassist
p248
(dp249
sVorg.codehaus.groovy/groovy
p250
(dp251
sVcommons-pool/commons-pool
p252
(dp253
sVcom.jolbox/bonecp
p254
(dp255
sVorg.apache.logging.log4j/log4j-api
p256
(dp257
sVjavax.validation/validation-api
p258
(dp259
sVorg.scala-lang/scala-reflect
p260
(dp261
sVorg.specs2/specs2-common_2.12
p262
(dp263
sVio.dropwizard.metrics/metrics-core
p264
(dp265
sVorg.checkerframework/checker-qual
p266
(dp267
sVcommons-fileupload/commons-fileupload
p268
(dp269
sVcom.google.code.gson/gson
p270
(dp271
sVio.prometheus/simpleclient
p272
(dp273
sVavalon-framework/avalon-framework
p274
(dp275
sVorg.skinny-framework/skinny-micro-json4s_2.10
p276
(dp277
sVorg.slf4j/slf4j-simple
p278
(dp279
sVorg.yaml/snakeyaml
p280
(dp281
sVorg.skinny-framework/skinny-micro-common_2.10
p282
(dp283
sVorg.jmock/jmock
p284
(dp285
sVcom.google.auto/auto-common
p286
(dp287
sVorg.apache.tomcat.embed/tomcat-embed-core
p288
(dp289
sVorg.hdrhistogram/HdrHistogram
p290
(dp291
sVcom.github.jponge/lzma-java
p292
(dp293
sVio.netty/netty-codec-http
p294
(dp295
sVorg.openjdk.jmh/jmh-generator-annprocess
p296
(dp297
sVorg.springframework/spring-jdbc
p298
(dp299
sVorg.scalikejdbc/scalikejdbc-joda-time_2.10
p300
(dp301
sVbiz.aQute/bnd
p302
(dp303
sVorg.springframework/spring-jcl
p304
(dp305
sVorg.slf4j/jul-to-slf4j
p306
(dp307
sVcom.google.protobuf/protobuf-java
p308
(dp309
sVnet.ltgt.gradle.incap/incap
p310
(dp311
sVio.netty/netty-resolver
p312
(dp313
sVorg.apache.felix/org.apache.felix.framework
p314
(dp315
sVorg.jvnet.mock-javamail/mock-javamail
p316
(dp317
sVorg.skinny-framework/skinny-http-client_2.10
p318
(dp319
sVcom.typesafe.akka/akka-http-core_2.12
p320
(dp321
sVcom.almworks.sqlite4java/sqlite4java
p322
(dp323
sVcom.typesafe.play/play-test_2.12
p324
(dp325
sVorg.scala-lang/scala-compiler
p326
(dp327
sVcom.beust/jcommander
p328
(dp329
sVorg.apiguardian/apiguardian-api
p330
(dp331
sVorg.apache.geronimo.specs/geronimo-jta_1.1_spec
p332
(dp333
sVjavax.activation/activation
p334
(dp335
sVorg.apache.derby/derby
p336
(dp337
sVorg.hamcrest/hamcrest-core
p338
(dp339
sVorg.junit.platform/junit-platform-engine
p340
(dp341
sVio.dropwizard.metrics/metrics-jvm
p342
(dp343
sVorg.powermock/powermock-module-junit4
p344
(dp345
sVcom.typesafe.play/play-netty-server_2.12
p346
(dp347
sVorg.jboss.marshalling/jboss-marshalling
p348
(dp349
sVorg.jboss.modules/jboss-modules
p350
(dp351
sVorg.specs2/specs2-mock_2.12
p352
(dp353
sVio.micrometer/micrometer-core
p354
(dp355
sVnet.minidev/json-smart
p356
(dp357
sVorg.scalatra.scalate/scalamd_2.10
p358
(dp359
sVorg.reactivestreams/reactive-streams
p360
(dp361
sVorg.scalikejdbc/scalikejdbc-test_2.10
p362
(dp363
sVorg.mortbay.jetty/jetty
p364
(dp365
sVorg.codehaus.groovy/groovy-all
p366
(dp367
sVio.netty/netty-handler
p368
(dp369
sVcom.squareup/javapoet
p370
(dp371
sVorg.skinny-framework/scalatra-test_2.10
p372
(dp373
sVorg.scala-lang.modules/scala-parser-combinators_2.12
p374
(dp375
sVcom.zaxxer/HikariCP
p376
(dp377
sVcom.typesafe.play/play-guice_2.12
p378
(dp379
sVorg.specs2/classycle
p380
(dp381
sVorg.joda/joda-convert
p382
(dp383
sVio.jsonwebtoken/jjwt
p384
(dp385
sVorg.scala-lang/scala-library
p386
(dp387
sVorg.codehaus.janino/commons-compiler
p388
(dp389
sVorg.scalacheck/scalacheck_2.12
p390
(dp391
sVorg.typelevel/macro-compat_2.12
p392
(dp393
sVorg.mule.transports/mule-transport-dq
p394
(dp395
sVio.reactivex/rxjava
p396
(dp397
sVcom.google.truth/truth
p398
(dp399
sVcom.typesafe.play/twirl-api_2.12
p400
(dp401
sVorg.reflections/reflections
p402
(dp403
sVorg.specs2/specs2-analysis_2.12
p404
(dp405
sVorg.json4s/json4s-native_2.10
p406
(dp407
sVcom.mchange/c3p0
p408
(dp409
sVorg.jmock/jmock-testjar
p410
(dp411
sVcom.googlecode.juniversalchardet/juniversalchardet
p412
(dp413
sVcom.google.guava/listenablefuture
p414
(dp415
sVcom.google.android/android
p416
(dp417
sVorg.scalaz/scalaz-core_2.10
p418
(dp419
sVcom.typesafe.akka/akka-protobuf_2.12
p420
(dp421
sVorg.scalatra.scalate/scalate-core_2.10
p422
(dp423
sVio.dropwizard.metrics/metrics-healthchecks
p424
(dp425
sVjavax.mail/mail
p426
(dp427
sVcom.typesafe.play/play-functional_2.12
p428
(dp429
sVorg.xerial/sqlite-jdbc
p430
(dp431
sVorg.postgresql/postgresql
p432
(dp433
sVcom.google.jimfs/jimfs
p434
(dp435
sVch.qos.logback/logback-classic
p436
(dp437
sVcom.fasterxml.jackson.datatype/jackson-datatype-jsr310
p438
(dp439
sVorg.opentest4j/opentest4j
p440
(dp441
sVorg.apache.ant/ant
p442
(dp443
sVcom.typesafe.play/play-specs2_2.12
p444
(dp445
sVorg.apache.tomcat/catalina
p446
(dp447
sVorg.apache.httpcomponents/httpmime
p448
(dp449
sVcom.typesafe.play/play-streams_2.12
p450
(dp451
sVcom.googlecode.java-diff-utils/diffutils
p452
(dp453
sVcom.hazelcast/hazelcast
p454
(dp455
sVjavax.interceptor/javax.interceptor-api
p456
(dp457
sVmysql/mysql-connector-java
p458
(dp459
sVcom.zaxxer/HikariCP-java6
p460
(dp461
sVorg.specs2/specs2-scalacheck_2.12
p462
(dp463
sVch.qos.logback/logback-core
p464
(dp465
sVorg.skinny-framework/skinny-worker_2.10
p466
(dp467
sVorg.infinitest/continuous-testing-toolkit
p468
(dp469
sVorg.jmock/jmock-junit4
p470
(dp471
sVorg.powermock/powermock-core
p472
(dp473
sVio.netty/netty-codec
p474
(dp475
sVorg.junit.jupiter/junit-jupiter-api
p476
(dp477
sVorg.apache.commons/commons-dbcp2
p478
(dp479
sVorg.specs2/specs2-matcher_2.10
p480
(dp481
sVorg.specs2/specs2-matcher_2.12
p482
(dp483
sVorg.eclipse.jdt.core.compiler/ecj
p484
(dp485
sVorg.apache-extras.beanshell/bsh
p486
(dp487
sVio.netty/netty-buffer
p488
(dp489
sVcom.google.errorprone/error_prone_annotations
p490
(dp491
sVorg.beanshell/bsh
p492
(dp493
sVjavax.xml.soap/javax.xml.soap-api
p494
(dp495
sVorg.skinny-framework/skinny-logback
p496
(dp497
sVnet.bytebuddy/byte-buddy-agent
p498
(dp499
sVtomcat/naming-java
p500
(dp501
sVorg.ow2.asm/asm-test
p502
(dp503
sVorg.apache.commons/commons-lang3
p504
(dp505
sVorg.ops4j.pax.url/pax-url-aether
p506
(dp507
sVorg.jboss.shrinkwrap/shrinkwrap-spi
p508
(dp509
sVoro/oro
p510
(dp511
sVorg.easymock/easymockclassextension
p512
(dp513
sVnet.jpountz.lz4/lz4
p514
(dp515
sVorg.slf4j/jcl-over-slf4j
p516
(dp517
sVsimple-jndi/simple-jndi
p518
(dp519
sVcom.google.guava/guava-testlib
p520
(dp521
sVorg.freemarker/freemarker
p522
(dp523
sVorg.jetbrains.kotlin/kotlin-reflect
p524
(dp525
sVcom.typesafe.akka/akka-testkit_2.12
p526
(dp527
sVorg.apache.logging.log4j/log4j-core
p528
(dp529
sVcom.typesafe.play/play-ahc-ws_2.12
p530
(dp531
sVcommons-httpclient/commons-httpclient
p532
(dp533
sVcom.typesafe.play/play-cache_2.12
p534
(dp535
sVorg.json4s/json4s-core_2.10
p536
(dp537
sVorg.scalikejdbc/scalikejdbc-config_2.10
p538
(dp539
sVorg.skinny-framework/skinny-micro_2.10
p540
(dp541
sVorg.scala-sbt/test-interface
p542
(dp543
sVorg.openjdk.jmh/jmh-core
p544
(dp545
sVorg.jmock/jmock-imposters
p546
(dp547
sVorg.junit.platform/junit-platform-commons
p548
(dp549
sVio.reactivex.rxjava2/rxjava
p550
(dp551
sVorg.powermock/powermock-api-mockito2
p552
(dp553
sVcom.mchange/mchange-commons-java
p554
(dp555
sVorg.eclipse.jetty/jetty-webapp
p556
(dp557
sVorg.apache.commons/commons-compress
p558
(dp559
sVorg.apache.tapestry/tapestry-json
p560
(dp561
sVorg.apache.velocity/velocity
p562
(dp563
sVorg.aspectj/aspectjrt
p564
(dp565
sVjoda-time/joda-time
p566
(dp567
sVorg.flywaydb/flyway-core
p568
(dp569
sVorg.aspectj/aspectjweaver
p570
(dp571
sVorg.junit.jupiter/junit-jupiter-params
p572
(dp573
sVnet.jcip/jcip-annotations
p574
(dp575
sVorg.junit.jupiter/junit-jupiter-engine
p576
(dp577
sVio.netty/netty-common
p578
(dp579
sVorg.specs2/specs2-core_2.10
p580
(dp581
sVorg.specs2/specs2-core_2.12
p582
(dp583
sVcom.typesafe.play/build-link
p584
(dp585
sVorg.droidparts.dexmaker/dexmaker
p586
(dp587
sVbr.eti.clairton/security
p588
(dp589
sVorg.specs2/specs2-fp_2.12
p590
(dp591
sVorg.apache.openejb/javaee-api
p592
(dp593
sVch.qos.cal10n.plugins/maven-cal10n-plugin
p594
(dp595
sVorg.ow2.asm/asm
p596
(dp597
sVnet.ltgt.gradle.incap/incap-processor
p598
(dp599
sVorg.apache.commons/commons-csv
p600
(dp601
sVio.projectreactor.netty/reactor-netty
p602
(dp603
sVcom.google.guava/failureaccess
p604
(dp605
sVjavax.xml.bind/jaxb-api
p606
(dp607
sVcom.typesafe.akka/akka-stream-testkit_2.12
p608
(dp609
sVorg.hamcrest/hamcrest
p610
(dp611
sVorg.springframework/spring-instrument
p612
(dp613
sVorg.apache.httpcomponents/httpclient
p614
(dp615
sVjavax.enterprise.concurrent/javax.enterprise.concurrent-api
p616
(dp617
sVorg.hsqldb/hsqldb
p618
(dp619
sVch.qos.cal10n/cal10n-api
p620
(dp621
sVorg.glassfish/javax.servlet
p622
(dp623
sVorg.powermock/powermock-api-easymock
p624
(dp625
sVcommons-dbcp/commons-dbcp
p626
(dp627
sVorg.codehaus.janino/janino
p628
(dp629
sVjavax.xml.ws/jaxws-api
p630
(dp631
sVorg.scala-lang.modules/scala-xml_2.12
p632
(dp633
sVorg.easymock/easymock
p634
(dp635
sVorg.hibernate/hibernate-validator
p636
(dp637
sVcom.typesafe.play/play-openid_2.12
p638
(dp639
sVcom.typesafe.play/play-exceptions
p640
(dp641
sVio.reactivex/rxjava-reactive-streams
p642
(dp643
sVorg.slf4j/slf4j-ext
p644
(dp645
sVorg.codehaus.mojo/animal-sniffer-annotations
p646
(dp647
sVjavax.el/el-api
p648
(dp649
sVcom.google.code.findbugs/annotations
p650
(dp651
sVorg.json4s/json4s-scalap_2.10
p652
(dp653
sVorg.osgi/org.osgi.core
p654
(dp655
sVorg.fusesource.jansi/jansi
p656
(dp657
sVse.jiderhamn/classloader-leak-test-framework
p658
(dp659
sVcom.typesafe.play/play-server_2.12
p660
(dp661
sVcom.ibm.icu/icu4j
p662
(dp663
sVorg.skinny-framework/skinny-framework_2.10
p664
(dp665
sVorg.scalactic/scalactic_2.13.0-M3
p666
(dp667
sVorg.json4s/json4s-ext_2.10
p668
(dp669
sVorg.scalikejdbc/scalikejdbc-core_2.10
p670
(dp671
sVcom.sun.mail/javax.mail
p672
(dp673
sVjavax.annotation/javax.annotation-api
p674
(dp675
sVcom.jamonapi/jamon
p676
(dp677
sVorg.latencyutils/LatencyUtils
p678
(dp679
sVorg.jetbrains.kotlin/kotlin-stdlib
p680
(dp681
sVcom.google.j2objc/j2objc-annotations
p682
(dp683
sVjunit/junit
p684
(dp685
sVorg.specs2/specs2-junit_2.12
p686
(dp687
sVcommons-logging/commons-logging
p688
(dp689
sVorg.apache.geronimo.modules/geronimo-transaction
p690
(dp691
sVcom.github.krzemin/octopus-cats_sjs0.6_2.12
p692
(dp693
sVcom.typesafe.akka/akka-stream_2.12
p694
(dp695
sVjavax.mail/javax.mail-api
p696
(dp697
sVorg.skinny-framework/skinny-mailer_2.10
p698
(dp699
sVcom.fasterxml.jackson.datatype/jackson-datatype-jdk8
p700
(dp701
sVcom.google.testing.compile/compile-testing
p702
(dp703
sVcom.typesafe.play/play-caffeine-cache_2.12
p704
(dp705
sVjavax.servlet/javax.servlet-api
p706
(dp707
sVorg.apache.lucene/lucene-analyzers-kuromoji
p708
(dp709
sVorg.jboss.shrinkwrap/shrinkwrap-api
p710
(dp711
sVorg.scalikejdbc/scalikejdbc_2.10
p712
(dp713
sVcom.fasterxml.jackson.core/jackson-annotations
p714
(dp715
sVorg.jboss.shrinkwrap/shrinkwrap-impl-base
p716
(dp717
sVorg.specs2/specs2-common_2.10
p718
(dp719
sVorg.ops4j.pax.exam/pax-exam-container-native
p720
(dp721
sVcom.typesafe.netty/netty-reactive-streams-http
p722
(dp723
sVorg.ops4j.pax.url/pax-url-reference
p724
(dp725
sVcom.typesafe.akka/akka-actor_2.12
p726
(dp727
sVcom.typesafe.akka/akka-actor_2.10
p728
(dp729
sVcom.google.jsinterop/jsinterop-annotations
p730
(dp731
sVorg.scala-lang.modules/scala-java8-compat_2.12
p732
(dp733
sVorg.jmockit/jmockit
p734
(dp735
sVcom.jcraft/jzlib
p736
(dp737
sVnet.sf.ehcache/ehcache
p738
(dp739
sVorg.scalatest/scalatest_2.12
p740
(dp741
sVorg.scalatest/scalatest_2.10
p742
(dp743
sVcom.typesafe.play/play-akka-http-server_2.12
p744
(dp745
sVorg.scalacheck/scalacheck_2.10
p746
(dp747
sVxpp3/xpp3
p748
(dp749
sVorg.jmock/jmock-legacy
p750
(dp751
sVorg.apache.commons/commons-pool2
p752
(dp753
sVcom.netflix.hystrix/hystrix-core
p754
(dp755
sVcom.typesafe.akka/akka-slf4j_2.12
p756
(dp757
sVorg.apache.derby/derbyclient
p758
(dp759
sVorg.apache.logging.log4j/log4j-slf4j-impl
p760
(dp761
sVorg.springframework/spring-context
p762
(dp763
sVorg.ops4j.pax.exam/pax-exam-junit4
p764
(dp765
sVorg.scalikejdbc/scalikejdbc-interpolation-macro_2.10
p766
(dp767
ssS'graph'
p768
(dp769
sS'_pred'
p770
(dp771
g12
(dp772
g58
(dp773
ssg14
(dp774
g702
(dp775
ssg16
(dp776
g762
(dp777
ssg18
(dp778
g154
(dp779
ssg20
(dp780
g174
(dp781
ssg22
(dp782
g148
(dp783
ssg24
(dp784
g644
(dp785
ssg26
(dp786
g64
(dp787
sg704
(dp788
sg534
(dp789
sg660
(dp790
sg378
(dp791
ssg28
(dp792
g644
(dp793
ssg30
(dp794
g354
(dp795
sg92
(dp796
ssg32
(dp797
g474
(dp798
ssg34
(dp799
g462
(dp800
sg352
(dp801
sg686
(dp802
sg582
(dp803
sg404
(dp804
sg46
(dp805
ssg36
(dp806
g238
(dp807
ssg38
(dp808
g664
(dp809
ssg40
(dp810
g198
(dp811
ssg42
(dp812
g762
(dp813
ssg44
(dp814
g434
(dp815
ssg46
(dp816
g686
(dp817
ssg48
(dp818
g276
(dp819
ssg50
(dp820
g342
(dp821
sg464
(dp822
sg264
(dp823
sg174
(dp824
sg676
(dp825
ssg52
(dp826
g294
(dp827
sg60
(dp828
sg312
(dp829
sg454
(dp830
sg578
(dp831
sg284
(dp832
sg474
(dp833
sg684
(dp834
sg488
(dp835
ssg54
(dp836
g398
(dp837
sg14
(dp838
ssg56
(dp839
g92
(dp840
ssg58
(dp841
g676
(dp842
ssg60
(dp843
g474
(dp844
sg368
(dp845
ssg62
(dp846
g230
(dp847
ssg64
(dp848
g530
(dp849
ssg66
(dp850
g516
(dp851
ssg68
(dp852
g92
(dp853
sg606
(dp854
ssg70
(dp855
g210
(dp856
ssg72
(dp857
g376
(dp858
sg460
(dp859
ssg74
(dp860
g578
(dp861
sg688
(dp862
sg146
(dp863
sg554
(dp864
sg676
(dp865
ssg76
(dp866
g676
(dp867
ssg78
(dp868
g198
(dp869
ssg80
(dp870
g554
(dp871
sg732
(dp872
sg450
(dp873
sg26
(dp874
ssg82
(dp875
g754
(dp876
ssg84
(dp877
g210
(dp878
ssg86
(dp879
g712
(dp880
sg300
(dp881
ssg88
(dp882
g664
(dp883
ssg90
(dp884
g702
(dp885
sg248
(dp886
ssg92
(dp887
g280
(dp888
ssg94
(dp889
g378
(dp890
ssg96
(dp891
g356
(dp892
ssg98
(dp893
g540
(dp894
sg88
(dp895
sg670
(dp896
sg754
(dp897
sg738
(dp898
sg22
(dp899
sg496
(dp900
sg264
(dp901
sg26
(dp902
sg318
(dp903
sg644
(dp904
sg66
(dp905
sg362
(dp906
sg698
(dp907
sg554
(dp908
sg516
(dp909
sg174
(dp910
sg460
(dp911
sg278
(dp912
sg372
(dp913
sg282
(dp914
sg376
(dp915
sg82
(dp916
sg756
(dp917
sg342
(dp918
sg578
(dp919
sg304
(dp920
sg56
(dp921
sg146
(dp922
sg306
(dp923
sg436
(dp924
sg86
(dp925
sg538
(dp926
ssg100
(dp927
g762
(dp928
ssg102
(dp929
g136
(dp930
sg26
(dp931
ssg104
(dp932
g354
(dp933
ssg106
(dp934
g92
(dp935
ssg108
(dp936
g676
(dp937
sg460
(dp938
ssg110
(dp939
g450
(dp940
sg26
(dp941
ssg112
(dp942
g74
(dp943
ssg114
(dp944
g688
(dp945
ssg116
(dp946
g536
(dp947
ssg118
(dp948
g354
(dp949
sg92
(dp950
ssg120
(dp951
g48
(dp952
sg384
(dp953
sg22
(dp954
sg136
(dp955
sg58
(dp956
sg26
(dp957
ssg122
(dp958
g416
(dp959
ssg124
(dp960
g154
(dp961
sg188
(dp962
sg372
(dp963
sg634
(dp964
sg348
(dp965
sg722
(dp966
ssg126
(dp967
g354
(dp968
sg194
(dp969
ssg128
(dp970
g514
(dp971
ssg130
(dp972
g376
(dp973
ssg132
(dp974
g326
(dp975
ssg134
(dp976
g298
(dp977
sg92
(dp978
ssg136
(dp979
g26
(dp980
ssg138
(dp981
g626
(dp982
ssg140
(dp983
g354
(dp984
sg650
(dp985
sg434
(dp986
sg702
(dp987
sg212
(dp988
sg174
(dp989
sg520
(dp990
ssg142
(dp991
g132
(dp992
sg174
(dp993
ssg144
(dp994
g318
(dp995
ssg146
(dp996
g644
(dp997
sg306
(dp998
ssg148
(dp999
g416
(dp1000
ssg150
(dp1001
g320
(dp1002
ssg152
(dp1003
g702
(dp1004
ssg154
(dp1005
g722
(dp1006
sg188
(dp1007
ssg156
(dp1008
g688
(dp1009
sg174
(dp1010
sg676
(dp1011
ssg158
(dp1012
g136
(dp1013
ssg160
(dp1014
g320
(dp1015
ssg162
(dp1016
g298
(dp1017
sg100
(dp1018
ssg164
(dp1019
g248
(dp1020
sg222
(dp1021
ssg166
(dp1022
g634
(dp1023
ssg168
(dp1024
g318
(dp1025
sg664
(dp1026
sg292
(dp1027
sg280
(dp1028
ssg170
(dp1029
g298
(dp1030
sg92
(dp1031
sg280
(dp1032
sg16
(dp1033
sg762
(dp1034
sg210
(dp1035
ssg172
(dp1036
g26
(dp1037
ssg174
(dp1038
g432
(dp1039
ssg176
(dp1040
g726
(dp1041
sg728
(dp1042
sg198
(dp1043
sg554
(dp1044
sg538
(dp1045
ssg178
(dp1046
g152
(dp1047
ssg180
(dp1048
g376
(dp1049
sg762
(dp1050
sg210
(dp1051
sg170
(dp1052
sg84
(dp1053
sg26
(dp1054
sg460
(dp1055
ssg182
(dp1056
g230
(dp1057
ssg184
(dp1058
g694
(dp1059
sg26
(dp1060
ssg186
(dp1061
g60
(dp1062
sg670
(dp1063
sg312
(dp1064
sg352
(dp1065
sg264
(dp1066
sg26
(dp1067
sg318
(dp1068
sg698
(dp1069
sg686
(dp1070
sg550
(dp1071
sg38
(dp1072
sg464
(dp1073
sg466
(dp1074
sg450
(dp1075
sg372
(dp1076
sg282
(dp1077
sg376
(dp1078
sg578
(dp1079
sg230
(dp1080
sg474
(dp1081
sg342
(dp1082
sg294
(dp1083
sg236
(dp1084
sg300
(dp1085
sg580
(dp1086
sg582
(dp1087
sg664
(dp1088
sg246
(dp1089
sg148
(dp1090
sg198
(dp1091
sg58
(dp1092
sg488
(dp1093
ssg188
(dp1094
g722
(dp1095
ssg190
(dp1096
g384
(dp1097
ssg192
(dp1098
g236
(dp1099
sg298
(dp1100
sg698
(dp1101
sg228
(dp1102
sg86
(dp1103
sg664
(dp1104
sg376
(dp1105
sg538
(dp1106
sg230
(dp1107
sg362
(dp1108
sg246
(dp1109
sg712
(dp1110
sg670
(dp1111
sg466
(dp1112
sg38
(dp1113
sg198
(dp1114
sg318
(dp1115
ssg194
(dp1116
g298
(dp1117
sg92
(dp1118
sg280
(dp1119
sg16
(dp1120
sg762
(dp1121
sg170
(dp1122
sg224
(dp1123
ssg196
(dp1124
g210
(dp1125
ssg198
(dp1126
g246
(dp1127
sg236
(dp1128
sg664
(dp1129
sg698
(dp1130
ssg200
(dp1131
g536
(dp1132
ssg202
(dp1133
g580
(dp1134
sg718
(dp1135
sg670
(dp1136
sg228
(dp1137
ssg204
(dp1138
sg206
(dp1139
g718
(dp1140
ssg208
(dp1141
g474
(dp1142
ssg210
(dp1143
g94
(dp1144
sg378
(dp1145
ssg212
(dp1146
g660
(dp1147
sg354
(dp1148
sg520
(dp1149
sg398
(dp1150
sg702
(dp1151
sg434
(dp1152
sg286
(dp1153
sg550
(dp1154
sg210
(dp1155
sg26
(dp1156
sg308
(dp1157
sg174
(dp1158
sg44
(dp1159
ssg214
(dp1160
g416
(dp1161
ssg216
(dp1162
g354
(dp1163
sg676
(dp1164
sg318
(dp1165
ssg218
(dp1166
g236
(dp1167
sg670
(dp1168
sg228
(dp1169
sg86
(dp1170
sg376
(dp1171
sg460
(dp1172
ssg220
(dp1173
g174
(dp1174
ssg222
(dp1175
g194
(dp1176
ssg224
(dp1177
g762
(dp1178
ssg226
(dp1179
g58
(dp1180
ssg228
(dp1181
g236
(dp1182
ssg230
(dp1183
sg232
(dp1184
g474
(dp1185
ssg234
(dp1186
g170
(dp1187
ssg236
(dp1188
g664
(dp1189
ssg238
(dp1190
g22
(dp1191
ssg240
(dp1192
g100
(dp1193
ssg242
(dp1194
g398
(dp1195
ssg244
(dp1196
g432
(dp1197
ssg246
(dp1198
g664
(dp1199
ssg248
(dp1200
g294
(dp1201
sg60
(dp1202
sg312
(dp1203
sg376
(dp1204
sg578
(dp1205
sg474
(dp1206
sg488
(dp1207
sg460
(dp1208
ssg250
(dp1209
g762
(dp1210
ssg252
(dp1211
g626
(dp1212
ssg254
(dp1213
g670
(dp1214
ssg256
(dp1215
g304
(dp1216
sg376
(dp1217
sg554
(dp1218
ssg258
(dp1219
g762
(dp1220
ssg260
(dp1221
g202
(dp1222
sg136
(dp1223
sg326
(dp1224
sg718
(dp1225
sg766
(dp1226
sg262
(dp1227
sg392
(dp1228
sg26
(dp1229
sg150
(dp1230
ssg262
(dp1231
g482
(dp1232
sg404
(dp1233
sg582
(dp1234
ssg264
(dp1235
g342
(dp1236
sg376
(dp1237
sg526
(dp1238
sg354
(dp1239
sg460
(dp1240
ssg266
(dp1241
g398
(dp1242
sg520
(dp1243
sg212
(dp1244
ssg268
(dp1245
g318
(dp1246
ssg270
(dp1247
g22
(dp1248
ssg272
(dp1249
g376
(dp1250
ssg274
(dp1251
g688
(dp1252
ssg276
(dp1253
g38
(dp1254
ssg278
(dp1255
g342
(dp1256
sg264
(dp1257
sg174
(dp1258
sg460
(dp1259
ssg280
(dp1260
g124
(dp1261
ssg282
(dp1262
g540
(dp1263
sg198
(dp1264
sg466
(dp1265
sg318
(dp1266
ssg284
(dp1267
g470
(dp1268
sg750
(dp1269
ssg286
(dp1270
g44
(dp1271
ssg288
(dp1272
g354
(dp1273
ssg290
(dp1274
g678
(dp1275
sg354
(dp1276
sg754
(dp1277
sg526
(dp1278
ssg292
(dp1279
g474
(dp1280
ssg294
(dp1281
g722
(dp1282
ssg296
(dp1283
g58
(dp1284
ssg298
(dp1285
g92
(dp1286
ssg300
(dp1287
g362
(dp1288
ssg302
(dp1289
g210
(dp1290
ssg304
(dp1291
g194
(dp1292
ssg306
(dp1293
g26
(dp1294
ssg308
(dp1295
g474
(dp1296
ssg310
(dp1297
g598
(dp1298
ssg312
(dp1299
g60
(dp1300
ssg314
(dp1301
g376
(dp1302
sg210
(dp1303
sg460
(dp1304
ssg316
(dp1305
g236
(dp1306
sg466
(dp1307
sg698
(dp1308
sg664
(dp1309
sg230
(dp1310
sg246
(dp1311
sg38
(dp1312
sg198
(dp1313
sg318
(dp1314
ssg318
(dp1315
g664
(dp1316
ssg320
(dp1317
g744
(dp1318
ssg322
(dp1319
sg324
(dp1320
g64
(dp1321
sg444
(dp1322
sg530
(dp1323
ssg326
(dp1324
g404
(dp1325
sg766
(dp1326
sg136
(dp1327
sg392
(dp1328
ssg328
(dp1329
g124
(dp1330
ssg330
(dp1331
g476
(dp1332
sg576
(dp1333
sg548
(dp1334
sg340
(dp1335
sg572
(dp1336
ssg332
(dp1337
g626
(dp1338
ssg334
(dp1339
g672
(dp1340
sg426
(dp1341
ssg336
(dp1342
g670
(dp1343
sg362
(dp1344
sg86
(dp1345
sg228
(dp1346
sg298
(dp1347
sg538
(dp1348
ssg338
(dp1349
g684
(dp1350
sg352
(dp1351
sg52
(dp1352
sg284
(dp1353
ssg340
(dp1354
g576
(dp1355
ssg342
(dp1356
g526
(dp1357
ssg344
(dp1358
g132
(dp1359
sg58
(dp1360
sg384
(dp1361
ssg346
(dp1362
g324
(dp1363
ssg348
(dp1364
g32
(dp1365
sg208
(dp1366
sg474
(dp1367
ssg350
(dp1368
g348
(dp1369
ssg352
(dp1370
g450
(dp1371
sg686
(dp1372
sg744
(dp1373
sg378
(dp1374
sg660
(dp1375
sg26
(dp1376
ssg354
(dp1377
g376
(dp1378
ssg356
(dp1379
g22
(dp1380
ssg358
(dp1381
g664
(dp1382
ssg360
(dp1383
g154
(dp1384
sg188
(dp1385
sg450
(dp1386
sg694
(dp1387
sg18
(dp1388
sg550
(dp1389
sg642
(dp1390
ssg362
(dp1391
g236
(dp1392
ssg364
(dp1393
g676
(dp1394
ssg366
(dp1395
g384
(dp1396
ssg368
(dp1397
g294
(dp1398
sg188
(dp1399
ssg370
(dp1400
g286
(dp1401
ssg372
(dp1402
g540
(dp1403
sg276
(dp1404
sg88
(dp1405
sg664
(dp1406
ssg374
(dp1407
g262
(dp1408
sg26
(dp1409
ssg376
(dp1410
g670
(dp1411
ssg378
(dp1412
g744
(dp1413
sg324
(dp1414
sg660
(dp1415
ssg380
(dp1416
g404
(dp1417
ssg382
(dp1418
g466
(dp1419
sg698
(dp1420
sg300
(dp1421
sg246
(dp1422
sg668
(dp1423
sg276
(dp1424
sg198
(dp1425
ssg384
(dp1426
g26
(dp1427
ssg386
(dp1428
g202
(dp1429
sg540
(dp1430
sg352
(dp1431
sg670
(dp1432
sg462
(dp1433
sg444
(dp1434
sg420
(dp1435
sg728
(dp1436
sg62
(dp1437
sg400
(dp1438
sg64
(dp1439
sg404
(dp1440
sg260
(dp1441
sg262
(dp1442
sg582
(dp1443
sg466
(dp1444
sg160
(dp1445
sg26
(dp1446
sg318
(dp1447
sg320
(dp1448
sg590
(dp1449
sg324
(dp1450
sg580
(dp1451
sg686
(dp1452
sg326
(dp1453
sg46
(dp1454
sg372
(dp1455
sg704
(dp1456
sg726
(dp1457
sg638
(dp1458
sg698
(dp1459
sg362
(dp1460
sg86
(dp1461
sg38
(dp1462
sg766
(dp1463
sg694
(dp1464
sg150
(dp1465
sg48
(dp1466
sg276
(dp1467
sg450
(dp1468
sg228
(dp1469
sg744
(dp1470
sg282
(dp1471
sg392
(dp1472
sg652
(dp1473
sg378
(dp1474
sg230
(dp1475
sg608
(dp1476
sg428
(dp1477
sg534
(dp1478
sg136
(dp1479
sg526
(dp1480
sg390
(dp1481
sg756
(dp1482
sg660
(dp1483
sg530
(dp1484
sg236
(dp1485
sg300
(dp1486
sg346
(dp1487
sg536
(dp1488
sg712
(dp1489
sg664
(dp1490
sg668
(dp1491
sg480
(dp1492
sg718
(dp1493
sg246
(dp1494
sg88
(dp1495
sg746
(dp1496
sg732
(dp1497
sg406
(dp1498
sg198
(dp1499
sg200
(dp1500
sg482
(dp1501
sg538
(dp1502
ssg388
(dp1503
g628
(dp1504
ssg390
(dp1505
g320
(dp1506
sg136
(dp1507
sg462
(dp1508
sg608
(dp1509
sg262
(dp1510
sg160
(dp1511
sg26
(dp1512
ssg392
(dp1513
g136
(dp1514
ssg394
(dp1515
sg396
(dp1516
g642
(dp1517
sg754
(dp1518
sg194
(dp1519
ssg398
(dp1520
g14
(dp1521
sg434
(dp1522
sg286
(dp1523
sg210
(dp1524
sg44
(dp1525
sg702
(dp1526
sg520
(dp1527
sg152
(dp1528
ssg400
(dp1529
g26
(dp1530
ssg402
(dp1531
g58
(dp1532
ssg404
(dp1533
g46
(dp1534
ssg406
(dp1535
g276
(dp1536
sg668
(dp1537
ssg408
(dp1538
g56
(dp1539
ssg410
(dp1540
g284
(dp1541
ssg412
(dp1542
g540
(dp1543
sg132
(dp1544
sg372
(dp1545
ssg414
(dp1546
g212
(dp1547
ssg416
(dp1548
g384
(dp1549
ssg418
(dp1550
g718
(dp1551
ssg420
(dp1552
g694
(dp1553
ssg422
(dp1554
g88
(dp1555
sg664
(dp1556
ssg424
(dp1557
g376
(dp1558
sg460
(dp1559
ssg426
(dp1560
g698
(dp1561
sg74
(dp1562
ssg428
(dp1563
g136
(dp1564
ssg430
(dp1565
g86
(dp1566
sg538
(dp1567
sg670
(dp1568
sg362
(dp1569
sg228
(dp1570
ssg432
(dp1571
g670
(dp1572
sg362
(dp1573
sg86
(dp1574
sg228
(dp1575
sg376
(dp1576
sg538
(dp1577
ssg434
(dp1578
g26
(dp1579
ssg436
(dp1580
g540
(dp1581
sg60
(dp1582
sg354
(dp1583
sg312
(dp1584
sg62
(dp1585
sg538
(dp1586
sg496
(dp1587
sg466
(dp1588
sg26
(dp1589
sg318
(dp1590
sg136
(dp1591
sg698
(dp1592
sg362
(dp1593
sg554
(dp1594
sg670
(dp1595
sg38
(dp1596
sg276
(dp1597
sg450
(dp1598
sg228
(dp1599
sg282
(dp1600
sg578
(dp1601
sg230
(dp1602
sg474
(dp1603
sg756
(dp1604
sg660
(dp1605
sg294
(dp1606
sg236
(dp1607
sg384
(dp1608
sg86
(dp1609
sg664
(dp1610
sg246
(dp1611
sg88
(dp1612
sg198
(dp1613
sg488
(dp1614
ssg438
(dp1615
g136
(dp1616
sg26
(dp1617
ssg440
(dp1618
g476
(dp1619
sg340
(dp1620
ssg442
(dp1621
g196
(dp1622
sg628
(dp1623
sg124
(dp1624
sg222
(dp1625
ssg444
(dp1626
g530
(dp1627
sg704
(dp1628
sg534
(dp1629
sg638
(dp1630
ssg446
(dp1631
g676
(dp1632
ssg448
(dp1633
g62
(dp1634
sg372
(dp1635
ssg450
(dp1636
g744
(dp1637
sg26
(dp1638
ssg452
(dp1639
g398
(dp1640
ssg454
(dp1641
g354
(dp1642
ssg456
(dp1643
g762
(dp1644
ssg458
(dp1645
g86
(dp1646
sg538
(dp1647
sg670
(dp1648
sg362
(dp1649
sg228
(dp1650
ssg460
(dp1651
g56
(dp1652
ssg462
(dp1653
g404
(dp1654
sg160
(dp1655
sg26
(dp1656
ssg464
(dp1657
g436
(dp1658
ssg466
(dp1659
g664
(dp1660
ssg468
(dp1661
g222
(dp1662
ssg470
(dp1663
g578
(dp1664
sg60
(dp1665
sg312
(dp1666
sg294
(dp1667
sg474
(dp1668
sg488
(dp1669
ssg472
(dp1670
g384
(dp1671
ssg474
(dp1672
g294
(dp1673
sg368
(dp1674
ssg476
(dp1675
g502
(dp1676
sg576
(dp1677
sg750
(dp1678
sg572
(dp1679
sg596
(dp1680
ssg478
(dp1681
g670
(dp1682
ssg480
(dp1683
g580
(dp1684
ssg482
(dp1685
g582
(dp1686
sg404
(dp1687
sg46
(dp1688
ssg484
(dp1689
g286
(dp1690
ssg486
(dp1691
g284
(dp1692
ssg488
(dp1693
g60
(dp1694
sg368
(dp1695
sg194
(dp1696
ssg490
(dp1697
g702
(dp1698
sg520
(dp1699
sg212
(dp1700
ssg492
(dp1701
g762
(dp1702
ssg494
(dp1703
g630
(dp1704
ssg496
(dp1705
g236
(dp1706
sg466
(dp1707
sg698
(dp1708
sg664
(dp1709
sg230
(dp1710
sg246
(dp1711
sg38
(dp1712
sg198
(dp1713
sg318
(dp1714
ssg498
(dp1715
g58
(dp1716
ssg500
(dp1717
g626
(dp1718
ssg502
(dp1719
g596
(dp1720
ssg504
(dp1721
g372
(dp1722
sg280
(dp1723
sg62
(dp1724
sg676
(dp1725
sg732
(dp1726
sg82
(dp1727
sg58
(dp1728
ssg506
(dp1729
g376
(dp1730
sg460
(dp1731
ssg508
(dp1732
g716
(dp1733
ssg510
(dp1734
g74
(dp1735
ssg512
(dp1736
g578
(dp1737
sg60
(dp1738
sg312
(dp1739
sg294
(dp1740
sg474
(dp1741
sg308
(dp1742
ssg514
(dp1743
g474
(dp1744
ssg516
(dp1745
g174
(dp1746
sg26
(dp1747
ssg518
(dp1748
g376
(dp1749
sg460
(dp1750
ssg520
(dp1751
g286
(dp1752
sg210
(dp1753
sg152
(dp1754
sg434
(dp1755
ssg522
(dp1756
g92
(dp1757
ssg524
(dp1758
g298
(dp1759
sg170
(dp1760
sg194
(dp1761
sg762
(dp1762
ssg526
(dp1763
g756
(dp1764
sg26
(dp1765
sg608
(dp1766
ssg528
(dp1767
g376
(dp1768
sg354
(dp1769
sg58
(dp1770
sg554
(dp1771
ssg530
(dp1772
g638
(dp1773
ssg532
(dp1774
g318
(dp1775
ssg534
(dp1776
g704
(dp1777
ssg536
(dp1778
g48
(dp1779
sg406
(dp1780
ssg538
(dp1781
g236
(dp1782
ssg540
(dp1783
g664
(dp1784
sg276
(dp1785
sg62
(dp1786
sg88
(dp1787
ssg542
(dp1788
g462
(dp1789
sg352
(dp1790
sg686
(dp1791
sg580
(dp1792
sg582
(dp1793
sg80
(dp1794
sg404
(dp1795
sg390
(dp1796
sg746
(dp1797
sg46
(dp1798
ssg544
(dp1799
g58
(dp1800
ssg546
(dp1801
g470
(dp1802
ssg548
(dp1803
g476
(dp1804
sg340
(dp1805
ssg550
(dp1806
g194
(dp1807
ssg552
(dp1808
g58
(dp1809
ssg554
(dp1810
g56
(dp1811
sg408
(dp1812
ssg556
(dp1813
g62
(dp1814
sg372
(dp1815
ssg558
(dp1816
g474
(dp1817
ssg560
(dp1818
g22
(dp1819
ssg562
(dp1820
g280
(dp1821
sg152
(dp1822
sg230
(dp1823
ssg564
(dp1824
g676
(dp1825
ssg566
(dp1826
g464
(dp1827
sg276
(dp1828
sg698
(dp1829
sg300
(dp1830
sg280
(dp1831
sg222
(dp1832
sg246
(dp1833
sg136
(dp1834
sg668
(dp1835
sg466
(dp1836
sg198
(dp1837
sg762
(dp1838
ssg568
(dp1839
g236
(dp1840
ssg570
(dp1841
g676
(dp1842
sg194
(dp1843
sg16
(dp1844
sg762
(dp1845
ssg572
(dp1846
g502
(dp1847
sg596
(dp1848
sg750
(dp1849
ssg574
(dp1850
g650
(dp1851
ssg576
(dp1852
g750
(dp1853
ssg578
(dp1854
g312
(dp1855
ssg580
(dp1856
g362
(dp1857
sg372
(dp1858
ssg582
(dp1859
g462
(dp1860
sg352
(dp1861
sg450
(dp1862
sg686
(dp1863
sg744
(dp1864
sg378
(dp1865
sg404
(dp1866
sg136
(dp1867
sg160
(dp1868
sg660
(dp1869
sg26
(dp1870
sg46
(dp1871
ssg584
(dp1872
g26
(dp1873
ssg586
(dp1874
g634
(dp1875
ssg588
(dp1876
sg590
(dp1877
g262
(dp1878
ssg592
(dp1879
g74
(dp1880
ssg594
(dp1881
g436
(dp1882
ssg596
(dp1883
g132
(dp1884
sg210
(dp1885
sg196
(dp1886
sg284
(dp1887
sg96
(dp1888
ssg598
(dp1889
g152
(dp1890
ssg600
(dp1891
g376
(dp1892
ssg602
(dp1893
g354
(dp1894
ssg604
(dp1895
g212
(dp1896
ssg606
(dp1897
g630
(dp1898
sg26
(dp1899
ssg608
(dp1900
g320
(dp1901
ssg610
(dp1902
g338
(dp1903
ssg612
(dp1904
g762
(dp1905
ssg614
(dp1906
g416
(dp1907
sg62
(dp1908
sg372
(dp1909
ssg616
(dp1910
g762
(dp1911
ssg618
(dp1912
g670
(dp1913
sg228
(dp1914
sg86
(dp1915
sg362
(dp1916
sg676
(dp1917
sg298
(dp1918
sg538
(dp1919
ssg620
(dp1920
g644
(dp1921
ssg622
(dp1922
g76
(dp1923
ssg624
(dp1924
g132
(dp1925
sg384
(dp1926
ssg626
(dp1927
g670
(dp1928
ssg628
(dp1929
g464
(dp1930
ssg630
(dp1931
g284
(dp1932
sg762
(dp1933
ssg632
(dp1934
g262
(dp1935
sg400
(dp1936
ssg634
(dp1937
g294
(dp1938
sg60
(dp1939
sg384
(dp1940
sg578
(dp1941
sg132
(dp1942
sg512
(dp1943
sg474
(dp1944
sg308
(dp1945
sg312
(dp1946
ssg636
(dp1947
g762
(dp1948
ssg638
(dp1949
sg640
(dp1950
g584
(dp1951
ssg642
(dp1952
g194
(dp1953
ssg644
(dp1954
g436
(dp1955
ssg646
(dp1956
g212
(dp1957
ssg648
(dp1958
g76
(dp1959
ssg650
(dp1960
g58
(dp1961
sg410
(dp1962
ssg652
(dp1963
g536
(dp1964
ssg654
(dp1965
g432
(dp1966
ssg656
(dp1967
g132
(dp1968
sg464
(dp1969
ssg658
(dp1970
g432
(dp1971
ssg660
(dp1972
g346
(dp1973
sg744
(dp1974
ssg662
(dp1975
g434
(dp1976
ssg664
(dp1977
g230
(dp1978
ssg666
(dp1979
sg668
(dp1980
g276
(dp1981
ssg670
(dp1982
g86
(dp1983
sg712
(dp1984
sg766
(dp1985
sg300
(dp1986
sg538
(dp1987
ssg672
(dp1988
g464
(dp1989
ssg674
(dp1990
g630
(dp1991
sg762
(dp1992
ssg676
(dp1993
g16
(dp1994
ssg678
(dp1995
g354
(dp1996
sg526
(dp1997
ssg680
(dp1998
g298
(dp1999
sg170
(dp2000
sg194
(dp2001
sg762
(dp2002
ssg682
(dp2003
g520
(dp2004
sg212
(dp2005
ssg684
(dp2006
g60
(dp2007
sg312
(dp2008
sg490
(dp2009
sg398
(dp2010
sg710
(dp2011
sg62
(dp2012
sg626
(dp2013
sg96
(dp2014
sg356
(dp2015
sg98
(dp2016
sg550
(dp2017
sg210
(dp2018
sg494
(dp2019
sg678
(dp2020
sg24
(dp2021
sg264
(dp2022
sg26
(dp2023
sg644
(dp2024
sg320
(dp2025
sg322
(dp2026
sg628
(dp2027
sg28
(dp2028
sg30
(dp2029
sg686
(dp2030
sg616
(dp2031
sg520
(dp2032
sg634
(dp2033
sg372
(dp2034
sg270
(dp2035
sg676
(dp2036
sg222
(dp2037
sg272
(dp2038
sg166
(dp2039
sg512
(dp2040
sg168
(dp2041
sg554
(dp2042
sg248
(dp2043
sg516
(dp2044
sg174
(dp2045
sg74
(dp2046
sg306
(dp2047
sg464
(dp2048
sg124
(dp2049
sg450
(dp2050
sg280
(dp2051
sg470
(dp2052
sg376
(dp2053
sg578
(dp2054
sg284
(dp2055
sg80
(dp2056
sg132
(dp2057
sg656
(dp2058
sg474
(dp2059
sg526
(dp2060
sg84
(dp2061
sg608
(dp2062
sg702
(dp2063
sg290
(dp2064
sg292
(dp2065
sg384
(dp2066
sg342
(dp2067
sg582
(dp2068
sg294
(dp2069
sg238
(dp2070
sg672
(dp2071
sg430
(dp2072
sg620
(dp2073
sg432
(dp2074
sg688
(dp2075
sg286
(dp2076
sg434
(dp2077
sg580
(dp2078
sg196
(dp2079
sg732
(dp2080
sg44
(dp2081
sg308
(dp2082
sg486
(dp2083
sg148
(dp2084
sg488
(dp2085
sg252
(dp2086
sg58
(dp2087
sg152
(dp2088
sg350
(dp2089
ssg686
(dp2090
g450
(dp2091
sg744
(dp2092
sg378
(dp2093
sg26
(dp2094
sg660
(dp2095
ssg688
(dp2096
g578
(dp2097
sg416
(dp2098
sg626
(dp2099
sg230
(dp2100
ssg690
(dp2101
g626
(dp2102
ssg692
(dp2103
sg694
(dp2104
g320
(dp2105
sg722
(dp2106
sg450
(dp2107
sg608
(dp2108
ssg696
(dp2109
g464
(dp2110
sg92
(dp2111
ssg698
(dp2112
g664
(dp2113
ssg700
(dp2114
g136
(dp2115
sg26
(dp2116
ssg702
(dp2117
g286
(dp2118
sg44
(dp2119
ssg704
(dp2120
g530
(dp2121
ssg706
(dp2122
g540
(dp2123
sg464
(dp2124
sg236
(dp2125
sg276
(dp2126
sg372
(dp2127
sg664
(dp2128
sg240
(dp2129
sg230
(dp2130
sg62
(dp2131
sg88
(dp2132
sg318
(dp2133
ssg708
(dp2134
g198
(dp2135
ssg710
(dp2136
g508
(dp2137
sg716
(dp2138
ssg712
(dp2139
g362
(dp2140
sg236
(dp2141
sg300
(dp2142
sg228
(dp2143
ssg714
(dp2144
g136
(dp2145
sg26
(dp2146
ssg716
(dp2147
g350
(dp2148
ssg718
(dp2149
g480
(dp2150
sg580
(dp2151
ssg720
(dp2152
g376
(dp2153
sg460
(dp2154
ssg722
(dp2155
g346
(dp2156
ssg724
(dp2157
g376
(dp2158
sg460
(dp2159
ssg726
(dp2160
g694
(dp2161
sg526
(dp2162
sg756
(dp2163
sg26
(dp2164
sg150
(dp2165
ssg728
(dp2166
g540
(dp2167
sg276
(dp2168
sg88
(dp2169
ssg730
(dp2170
g242
(dp2171
ssg732
(dp2172
g726
(dp2173
sg450
(dp2174
sg26
(dp2175
ssg734
(dp2176
g174
(dp2177
ssg736
(dp2178
g294
(dp2179
sg474
(dp2180
ssg738
(dp2181
g354
(dp2182
sg92
(dp2183
ssg740
(dp2184
g320
(dp2185
sg694
(dp2186
sg400
(dp2187
sg608
(dp2188
sg136
(dp2189
sg526
(dp2190
ssg742
(dp2191
g236
(dp2192
sg466
(dp2193
sg542
(dp2194
sg300
(dp2195
sg228
(dp2196
sg538
(dp2197
sg282
(dp2198
sg372
(dp2199
sg62
(dp2200
sg230
(dp2201
sg766
(dp2202
sg362
(dp2203
sg246
(dp2204
sg698
(dp2205
sg712
(dp2206
sg664
(dp2207
sg670
(dp2208
sg38
(dp2209
sg198
(dp2210
sg86
(dp2211
sg318
(dp2212
ssg744
(dp2213
g324
(dp2214
ssg746
(dp2215
g718
(dp2216
ssg748
(dp2217
g416
(dp2218
ssg750
(dp2219
g470
(dp2220
ssg752
(dp2221
g16
(dp2222
ssg754
(dp2223
g354
(dp2224
ssg756
(dp2225
g26
(dp2226
ssg758
(dp2227
g298
(dp2228
ssg760
(dp2229
g376
(dp2230
ssg762
(dp2231
g92
(dp2232
ssg764
(dp2233
g376
(dp2234
sg460
(dp2235
ssg766
(dp2236
g86
(dp2237
sssS'_succ'
p2238
(dp2239
g12
(dp2240
sg14
(dp2241
Vorg.checkerframework/checker-compat-qual
p2242
g838
sVcom.google.truth/truth
p2243
g1521
ssg16
(dp2244
Vorg.aspectj/aspectjweaver
p2245
g1844
sVorg.springframework/spring-core
p2246
g1120
sg676
g1994
sg752
g2222
sVorg.springframework/spring-beans
p2247
g1033
ssg18
(dp2248
Vorg.reactivestreams/reactive-streams
p2249
g1388
ssg20
(dp2250
sg22
(dp2251
g238
g1191
sg270
g1248
sg356
g1380
sVorg.slf4j/slf4j-api
p2252
g899
sg560
g1819
sVcom.fasterxml.jackson.core/jackson-databind
p2253
g954
ssg24
(dp2254
Vjunit/junit
p2255
g2021
ssg26
(dp2256
Vorg.specs2/specs2-mock_2.12
p2257
g1376
sg438
g1617
sg726
g2164
sg400
g1530
sg98
g902
sg732
g2175
sg260
g1229
sg102
g931
sg212
g1156
sg684
g2023
sg110
g941
sVorg.specs2/specs2-junit_2.12
p2258
g2094
sg516
g1747
sg172
g1037
sg120
g957
sg306
g1294
sg462
g1656
sVcom.typesafe.play/play-streams_2.12
p2259
g1638
sg700
g2116
sg374
g1409
sg180
g1054
sg606
g1899
sg80
g874
sg184
g1060
sg584
g1873
sg136
g980
sg526
g1765
sg186
g1067
sg756
g2226
sg384
g1427
sVorg.scala-lang/scala-library
p2260
g1446
sVorg.specs2/specs2-core_2.12
p2261
g1870
sg714
g2146
sg434
g1579
sg390
g1512
sg436
g1589
ssg28
(dp2262
Vjunit/junit
p2263
g2028
ssg30
(dp2264
Vjunit/junit
p2265
g2029
ssg32
(dp2266
Vorg.jboss.marshalling/jboss-marshalling
p2267
g1365
ssg34
(dp2268
sg36
(dp2269
sg38
(dp2270
g276
g1254
sVorg.scala-lang/scala-library
p2271
g1462
sVcom.h2database/h2
p2272
g1113
sVorg.scalatest/scalatest_2.10
p2273
g2209
sVorg.jvnet.mock-javamail/mock-javamail
p2274
g1312
sVorg.skinny-framework/skinny-logback
p2275
g1712
sVch.qos.logback/logback-classic
p2276
g1596
sVorg.mockito/mockito-core
p2277
g1072
ssg40
(dp2278
sg42
(dp2279
sg44
(dp2280
g286
g1271
sVcom.google.truth/truth
p2281
g1525
sg702
g2119
sVjunit/junit
p2282
g2081
sVcom.google.guava/guava
p2283
g1159
ssg46
(dp2284
Vorg.scala-sbt/test-interface
p2285
g1798
sVorg.scala-lang/scala-library
p2286
g1454
sVorg.specs2/specs2-core_2.12
p2287
g1871
sg404
g1534
sVorg.scala-js/scalajs-stubs_2.12
p2288
g805
sVorg.specs2/specs2-matcher_2.12
p2289
g1688
ssg48
(dp2290
Vorg.json4s/json4s-core_2.10
p2291
g1779
sVcom.fasterxml.jackson.core/jackson-databind
p2292
g952
sVorg.scala-lang/scala-library
p2293
g1466
ssg50
(dp2294
sg52
(dp2295
Vorg.hamcrest/hamcrest-core
p2296
g1352
ssg54
(dp2297
sg56
(dp2298
Vorg.slf4j/slf4j-api
p2299
g921
sg408
g1539
sg554
g1811
sg460
g1652
ssg58
(dp2300
g296
g1284
sg544
g1800
sVorg.powermock/powermock-module-junit4
p2301
g1360
sg12
g773
sVorg.apache.commons/commons-lang3
p2302
g1728
sVcom.google.code.findbugs/annotations
p2303
g1961
sg498
g1716
sg402
g1532
sg552
g1809
sVcom.fasterxml.jackson.core/jackson-databind
p2304
g956
sVorg.apache.logging.log4j/log4j-core
p2305
g1770
sg226
g1180
sVjunit/junit
p2306
g2087
sVorg.mockito/mockito-core
p2307
g1092
ssg60
(dp2308
g312
g1300
sVorg.easymock/easymock
p2309
g1939
sVorg.jmock/jmock-junit4
p2310
g1665
sVorg.hamcrest/hamcrest-library
p2311
g828
sVorg.easymock/easymockclassextension
p2312
g1738
sVjunit/junit
p2313
g2007
sVch.qos.logback/logback-classic
p2314
g1582
sVorg.mockito/mockito-core
p2315
g1062
sVorg.javassist/javassist
p2316
g1202
sVio.netty/netty-buffer
p2317
g1694
ssg62
(dp2318
Vorg.skinny-framework/skinny-micro_2.10
p2319
g1786
sg556
g1814
sVorg.scala-lang/scala-library
p2320
g1437
sVjavax.servlet/javax.servlet-api
p2321
g2131
sVorg.apache.commons/commons-lang3
p2322
g1724
sVorg.scalatest/scalatest_2.10
p2323
g2200
sVjunit/junit
p2324
g2012
sVch.qos.logback/logback-classic
p2325
g1585
sg448
g1634
sVorg.apache.httpcomponents/httpclient
p2326
g1908
ssg64
(dp2327
Vcom.typesafe.play/play-test_2.12
p2328
g1321
sVorg.scala-lang/scala-library
p2329
g1439
sg26
g787
ssg66
(dp2330
Vorg.slf4j/slf4j-api
p2331
g905
ssg68
(dp2332
sg70
(dp2333
sg72
(dp2334
sg74
(dp2335
g592
g1880
sg426
g1562
sg510
g1735
sg112
g943
sVjunit/junit
p2336
g2046
ssg76
(dp2337
g622
g1923
sg648
g1959
ssg78
(dp2338
sg80
(dp2339
Vorg.scala-sbt/test-interface
p2340
g1794
sVjunit/junit
p2341
g2056
ssg82
(dp2342
Vorg.apache.commons/commons-lang3
p2343
g1727
sVorg.slf4j/slf4j-api
p2344
g916
ssg84
(dp2345
Vjavax.inject/javax.inject
p2346
g1053
sVjunit/junit
p2347
g2061
ssg86
(dp2348
Vorg.scalikejdbc/scalikejdbc-core_2.10
p2349
g1983
sVorg.scala-lang/scala-library
p2350
g1461
sVorg.hibernate/hibernate-core
p2351
g1170
sVorg.xerial/sqlite-jdbc
p2352
g1566
sVorg.postgresql/postgresql
p2353
g1574
sVorg.apache.derby/derby
p2354
g1345
sVorg.slf4j/slf4j-api
p2355
g925
sVorg.scalatest/scalatest_2.10
p2356
g2211
sg766
g2237
sVorg.hsqldb/hsqldb
p2357
g1915
sVmysql/mysql-connector-java
p2358
g1646
sVch.qos.logback/logback-classic
p2359
g1609
sVcom.h2database/h2
p2360
g1103
ssg88
(dp2361
Vorg.scalatra.scalate/scalate-core_2.10
p2362
g1555
sVjavax.servlet/javax.servlet-api
p2363
g2132
sVorg.scala-lang/scala-library
p2364
g1495
sVorg.skinny-framework/scalatra-test_2.10
p2365
g1405
sVcom.typesafe.akka/akka-actor_2.10
p2366
g2169
sVorg.skinny-framework/skinny-micro_2.10
p2367
g1787
sVorg.slf4j/slf4j-api
p2368
g895
sVch.qos.logback/logback-classic
p2369
g1612
ssg90
(dp2370
sg92
(dp2371
g298
g1286
sg30
g796
sg522
g1757
sVjavax.activation/javax.activation-api
p2372
g853
sg56
g840
sg738
g2183
sVorg.springframework/spring-core
p2373
g1118
sg762
g2232
sVorg.springframework/spring-beans
p2374
g1031
sg118
g950
sg106
g935
sg134
g978
sVjavax.mail/javax.mail-api
p2375
g2111
ssg94
(dp2376
Vcom.google.inject/guice
p2377
g1144
ssg96
(dp2378
Vorg.ow2.asm/asm
p2379
g1888
sVjunit/junit
p2380
g2014
ssg98
(dp2381
Vjunit/junit
p2382
g2016
ssg100
(dp2383
g240
g1193
sVjavax.transaction/javax.transaction-api
p2384
g1018
ssg102
(dp2385
sg104
(dp2386
sg106
(dp2387
sg108
(dp2388
sg110
(dp2389
sg112
(dp2390
sg114
(dp2391
sg116
(dp2392
sg118
(dp2393
sg120
(dp2394
sg122
(dp2395
sg124
(dp2396
g328
g1330
sg442
g1624
sVjunit/junit
p2397
g2049
sg280
g1261
ssg126
(dp2398
sg128
(dp2399
sg130
(dp2400
sg132
(dp2401
Vorg.powermock/powermock-module-junit4
p2402
g1359
sVorg.ow2.asm/asm
p2403
g1884
sVorg.easymock/easymock
p2404
g1942
sVorg.powermock/powermock-api-easymock
p2405
g1925
sVorg.fusesource.jansi/jansi
p2406
g1968
sg412
g1544
sg142
g992
sVjunit/junit
p2407
g2057
ssg134
(dp2408
sg136
(dp2409
Vcom.fasterxml.jackson.datatype/jackson-datatype-jsr310
p2410
g1616
sVorg.scala-lang/scala-library
p2411
g1479
sVcom.fasterxml.jackson.datatype/jackson-datatype-jdk8
p2412
g2115
sg158
g1013
sVorg.specs2/specs2-core_2.12
p2413
g1867
sg326
g1327
sVcom.fasterxml.jackson.core/jackson-annotations
p2414
g2145
sVorg.scalatest/scalatest_2.12
p2415
g2189
sg428
g1564
sVorg.scala-lang/scala-reflect
p2416
g1223
sVorg.scalacheck/scalacheck_2.12
p2417
g1507
sVcom.fasterxml.jackson.core/jackson-core
p2418
g930
sg392
g1514
sVcom.fasterxml.jackson.core/jackson-databind
p2419
g955
sVch.qos.logback/logback-classic
p2420
g1591
sg566
g1834
ssg138
(dp2421
sg140
(dp2422
sg142
(dp2423
sg144
(dp2424
sg146
(dp2425
Vorg.slf4j/slf4j-api
p2426
g922
sg74
g863
ssg148
(dp2427
Vorg.mockito/mockito-core
p2428
g1090
sg22
g783
sVjunit/junit
p2429
g2084
ssg150
(dp2430
Vcom.typesafe.akka/akka-actor_2.12
p2431
g2165
sVorg.scala-lang/scala-reflect
p2432
g1230
sVorg.scala-lang/scala-library
p2433
g1465
ssg152
(dp2434
g178
g1047
sVcom.google.truth/truth
p2435
g1528
sg598
g1890
sVorg.apache.velocity/velocity
p2436
g1822
sVcom.google.guava/guava-testlib
p2437
g1754
sVjunit/junit
p2438
g2088
ssg154
(dp2439
Vorg.reactivestreams/reactive-streams
p2440
g1384
sVorg.testng/testng
p2441
g961
sg18
g779
ssg156
(dp2442
sg158
(dp2443
sg160
(dp2444
Vorg.specs2/specs2-scalacheck_2.12
p2445
g1655
sVorg.specs2/specs2-core_2.12
p2446
g1868
sVorg.scalacheck/scalacheck_2.12
p2447
g1511
sVorg.scala-lang/scala-library
p2448
g1445
ssg162
(dp2449
sg164
(dp2450
sg166
(dp2451
Vjunit/junit
p2452
g2039
ssg168
(dp2453
Vjunit/junit
p2454
g2041
ssg170
(dp2455
g194
g1122
sg234
g1187
sg680
g2000
sVjavax.inject/javax.inject
p2456
g1052
sg524
g1760
ssg172
(dp2457
sg174
(dp2458
Vcom.google.code.findbugs/jsr305
p2459
g989
sVorg.slf4j/slf4j-simple
p2460
g1258
sVorg.assertj/assertj-core
p2461
g824
sVjavax.servlet/servlet-api
p2462
g1010
sg220
g1174
sVorg.slf4j/slf4j-api
p2463
g910
sg20
g781
sg734
g2177
sVcom.google.guava/guava
p2464
g1158
sVorg.slf4j/jcl-over-slf4j
p2465
g1746
sVnet.java.dev.jna/jna
p2466
g993
sVjunit/junit
p2467
g2045
ssg176
(dp2468
sg178
(dp2469
sg180
(dp2470
sg182
(dp2471
sg184
(dp2472
sg186
(dp2473
sg188
(dp2474
Vorg.reactivestreams/reactive-streams
p2475
g1385
sVorg.reactivestreams/reactive-streams-tck
p2476
g1007
sVorg.testng/testng
p2477
g962
sVio.netty/netty-handler
p2478
g1399
ssg190
(dp2479
sg192
(dp2480
sg194
(dp2481
g396
g1519
sg126
g969
sg304
g1292
sVorg.jetbrains.kotlin/kotlin-reflect
p2482
g1761
sg222
g1176
sg570
g1843
sg550
g1807
sg642
g1953
sVorg.jetbrains.kotlin/kotlin-stdlib
p2483
g2001
sVio.netty/netty-buffer
p2484
g1696
ssg196
(dp2485
Vorg.ow2.asm/asm
p2486
g1886
sVjunit/junit
p2487
g2079
sVorg.apache.ant/ant
p2488
g1622
ssg198
(dp2489
Vcom.typesafe/config
p2490
g1043
sg708
g2135
sVorg.scala-lang/scala-library
p2491
g1499
sVorg.joda/joda-convert
p2492
g1425
sVcom.h2database/h2
p2493
g1114
sg78
g869
sVorg.scalatest/scalatest_2.10
p2494
g2210
sVorg.jvnet.mock-javamail/mock-javamail
p2495
g1313
sVorg.skinny-framework/skinny-logback
p2496
g1713
sVch.qos.logback/logback-classic
p2497
g1613
sVorg.mockito/mockito-core
p2498
g1091
sg40
g811
sVorg.skinny-framework/skinny-micro-common_2.10
p2499
g1264
sVjoda-time/joda-time
p2500
g1837
ssg200
(dp2501
Vorg.scala-lang/scala-library
p2502
g1500
ssg202
(dp2503
Vorg.scala-lang/scala-reflect
p2504
g1222
sVorg.scala-lang/scala-library
p2505
g1429
ssg204
(dp2506
sg206
(dp2507
sg208
(dp2508
Vorg.jboss.marshalling/jboss-marshalling
p2509
g1366
ssg210
(dp2510
g70
g856
sg302
g1290
sg596
g1885
sVcom.google.truth/truth
p2511
g1524
sVjavax.inject/javax.inject
p2512
g1051
sg196
g1125
sg170
g1035
sg314
g1303
sVcom.google.guava/guava
p2513
g1155
sg84
g878
sVcom.google.guava/guava-testlib
p2514
g1753
sVjunit/junit
p2515
g2018
ssg212
(dp2516
g140
g988
sg266
g1244
sg604
g1896
sg490
g1700
sg646
g1957
sg414
g1547
sg682
g2005
ssg214
(dp2517
sg216
(dp2518
sg218
(dp2519
sg220
(dp2520
sg222
(dp2521
Vorg.hamcrest/hamcrest-all
p2522
g1021
sVjoda-time/joda-time
p2523
g1832
sVjunit/junit
p2524
g2037
sg468
g1662
sVorg.apache.ant/ant
p2525
g1625
ssg224
(dp2526
Vorg.springframework/spring-core
p2527
g1123
ssg226
(dp2528
sg228
(dp2529
g202
g1137
sVorg.scala-lang/scala-library
p2530
g1469
sVorg.hibernate/hibernate-core
p2531
g1169
sVorg.xerial/sqlite-jdbc
p2532
g1570
sVcom.h2database/h2
p2533
g1102
sVorg.scalikejdbc/scalikejdbc_2.10
p2534
g2143
sVorg.apache.derby/derby
p2535
g1346
sVorg.scalatest/scalatest_2.10
p2536
g2196
sVorg.hsqldb/hsqldb
p2537
g1914
sVmysql/mysql-connector-java
p2538
g1650
sVch.qos.logback/logback-classic
p2539
g1599
sVorg.postgresql/postgresql
p2540
g1575
ssg230
(dp2541
Vjavax.servlet/javax.servlet-api
p2542
g2130
sg664
g1978
sVorg.scala-lang/scala-library
p2543
g1475
sVcommons-logging/commons-logging
p2544
g2100
sg62
g847
sg182
g1057
sVorg.scalatest/scalatest_2.10
p2545
g2201
sVorg.apache.velocity/velocity
p2546
g1823
sg316
g1310
sg496
g1710
sVch.qos.logback/logback-classic
p2547
g1602
sVorg.mockito/mockito-core
p2548
g1080
sVcom.h2database/h2
p2549
g1107
ssg232
(dp2550
sg234
(dp2551
sg236
(dp2552
Vjavax.servlet/javax.servlet-api
p2553
g2125
sVorg.skinny-framework/skinny-common_2.10
p2554
g1128
sVorg.scala-lang/scala-library
p2555
g1485
sVorg.hibernate/hibernate-core
p2556
g1167
sVcom.h2database/h2
p2557
g1099
sg712
g2141
sg568
g1840
sg362
g1392
sVorg.scalatest/scalatest_2.10
p2558
g2192
sVorg.jvnet.mock-javamail/mock-javamail
p2559
g1306
sVorg.skinny-framework/skinny-logback
p2560
g1706
sg228
g1182
sVorg.mockito/mockito-core
p2561
g1084
sVch.qos.logback/logback-classic
p2562
g1607
sg538
g1782
ssg238
(dp2563
g36
g807
sVjunit/junit
p2564
g2070
ssg240
(dp2565
Vjavax.servlet/javax.servlet-api
p2566
g2129
ssg242
(dp2567
g730
g2171
ssg244
(dp2568
sg246
(dp2569
Vorg.skinny-framework/skinny-common_2.10
p2570
g1127
sVorg.scala-lang/scala-library
p2571
g1494
sVcom.h2database/h2
p2572
g1109
sVorg.scalatest/scalatest_2.10
p2573
g2204
sVorg.jvnet.mock-javamail/mock-javamail
p2574
g1311
sVorg.skinny-framework/skinny-logback
p2575
g1711
sVch.qos.logback/logback-classic
p2576
g1611
sVorg.mockito/mockito-core
p2577
g1089
sVorg.joda/joda-convert
p2578
g1422
sVjoda-time/joda-time
p2579
g1833
ssg248
(dp2580
Vjunit/junit
p2581
g2043
sg164
g1020
sVcom.sun/tools
p2582
g886
ssg250
(dp2583
sg252
(dp2584
Vjunit/junit
p2585
g2086
ssg254
(dp2586
sg256
(dp2587
sg258
(dp2588
sg260
(dp2589
Vorg.scala-lang/scala-library
p2590
g1441
ssg262
(dp2591
Vorg.scala-lang.modules/scala-xml_2.12
p2592
g1935
sVorg.scala-lang/scala-library
p2593
g1442
sVorg.scala-lang.modules/scala-parser-combinators_2.12
p2594
g1408
sVorg.scala-lang/scala-reflect
p2595
g1227
sVorg.scalacheck/scalacheck_2.12
p2596
g1510
sg590
g1878
ssg264
(dp2597
Vorg.slf4j/slf4j-api
p2598
g901
sVorg.mockito/mockito-core
p2599
g1066
sVjunit/junit
p2600
g2022
sg278
g1257
sg50
g823
ssg266
(dp2601
sg268
(dp2602
sg270
(dp2603
Vjunit/junit
p2604
g2035
ssg272
(dp2605
Vjunit/junit
p2606
g2038
ssg274
(dp2607
sg276
(dp2608
Vjavax.servlet/javax.servlet-api
p2609
g2126
sVorg.scala-lang/scala-library
p2610
g1467
sVorg.skinny-framework/scalatra-test_2.10
p2611
g1404
sVcom.typesafe.akka/akka-actor_2.10
p2612
g2168
sVorg.skinny-framework/skinny-micro_2.10
p2613
g1785
sg406
g1536
sg668
g1981
sVch.qos.logback/logback-classic
p2614
g1597
sVorg.joda/joda-convert
p2615
g1424
sVjoda-time/joda-time
p2616
g1828
sg48
g819
ssg278
(dp2617
Vorg.slf4j/slf4j-api
p2618
g912
ssg280
(dp2619
Vjunit/junit
p2620
g2051
sg92
g888
sVorg.apache.commons/commons-lang3
p2621
g1723
sVorg.springframework/spring-core
p2622
g1119
sg168
g1028
sVorg.springframework/spring-beans
p2623
g1032
sVjoda-time/joda-time
p2624
g1831
sg562
g1821
ssg282
(dp2625
Vorg.slf4j/slf4j-api
p2626
g914
sVch.qos.logback/logback-classic
p2627
g1600
sVorg.scalatest/scalatest_2.10
p2628
g2198
sVorg.scala-lang/scala-library
p2629
g1471
sVorg.mockito/mockito-core
p2630
g1077
ssg284
(dp2631
g630
g1932
sVorg.ow2.asm/asm
p2632
g1887
sVorg.hamcrest/hamcrest-core
p2633
g1353
sVorg.hamcrest/hamcrest-library
p2634
g832
sg410
g1541
sg486
g1692
sVjunit/junit
p2635
g2055
ssg286
(dp2636
g370
g1401
sVcom.google.truth/truth
p2637
g1523
sg484
g1690
sVcom.google.testing.compile/compile-testing
p2638
g2118
sVcom.google.guava/guava
p2639
g1153
sVcom.google.guava/guava-testlib
p2640
g1752
sVjunit/junit
p2641
g2076
ssg288
(dp2642
sg290
(dp2643
Vjunit/junit
p2644
g2064
ssg292
(dp2645
Vcommons-io/commons-io
p2646
g1027
sVjunit/junit
p2647
g2065
ssg294
(dp2648
Vjunit/junit
p2649
g2069
sg736
g2179
sVorg.easymock/easymock
p2650
g1938
sg470
g1667
sVorg.hamcrest/hamcrest-library
p2651
g827
sg512
g1740
sg248
g1201
sg474
g1673
sVch.qos.logback/logback-classic
p2652
g1606
sVorg.mockito/mockito-core
p2653
g1083
sg368
g1398
ssg296
(dp2654
sg298
(dp2655
g758
g2228
sg336
g1347
sg192
g1100
sVorg.jetbrains.kotlin/kotlin-reflect
p2656
g1759
sVorg.springframework/spring-tx
p2657
g977
sg618
g1918
sVorg.springframework/spring-core
p2658
g1117
sVorg.jetbrains.kotlin/kotlin-stdlib
p2659
g1999
sg162
g1017
sVorg.springframework/spring-beans
p2660
g1030
ssg300
(dp2661
Vorg.scalikejdbc/scalikejdbc-core_2.10
p2662
g1986
sVorg.scala-lang/scala-library
p2663
g1486
sVorg.scalikejdbc/scalikejdbc-interpolation_2.10
p2664
g881
sVorg.scalikejdbc/scalikejdbc_2.10
p2665
g2142
sVorg.scalatest/scalatest_2.10
p2666
g2195
sVorg.mockito/mockito-core
p2667
g1085
sVorg.joda/joda-convert
p2668
g1421
sVjoda-time/joda-time
p2669
g1830
ssg302
(dp2670
sg304
(dp2671
g256
g1216
sVorg.slf4j/slf4j-api
p2672
g920
ssg306
(dp2673
Vorg.slf4j/slf4j-api
p2674
g923
sg146
g998
sVjunit/junit
p2675
g2047
ssg308
(dp2676
Vorg.easymock/easymock
p2677
g1945
sVorg.easymock/easymockclassextension
p2678
g1742
sVjunit/junit
p2679
g2082
sVcom.google.guava/guava
p2680
g1157
ssg310
(dp2681
sg312
(dp2682
g578
g1855
sVorg.easymock/easymock
p2683
g1946
sVorg.jmock/jmock-junit4
p2684
g1666
sVorg.hamcrest/hamcrest-library
p2685
g829
sVorg.easymock/easymockclassextension
p2686
g1739
sVjunit/junit
p2687
g2008
sVch.qos.logback/logback-classic
p2688
g1584
sVorg.mockito/mockito-core
p2689
g1064
sVorg.javassist/javassist
p2690
g1203
ssg314
(dp2691
sg316
(dp2692
sg318
(dp2693
Vjavax.servlet/javax.servlet-api
p2694
g2133
sg532
g1775
sVorg.scala-lang/scala-library
p2695
g1447
sg268
g1246
sVorg.skinny-framework/skinny-micro-common_2.10
p2696
g1266
sg144
g995
sVorg.slf4j/slf4j-api
p2697
g903
sVorg.scalatest/scalatest_2.10
p2698
g2212
sVcommons-io/commons-io
p2699
g1025
sVorg.jvnet.mock-javamail/mock-javamail
p2700
g1314
sVorg.skinny-framework/skinny-logback
p2701
g1714
sVch.qos.logback/logback-classic
p2702
g1590
sVorg.mockito/mockito-core
p2703
g1068
sVcom.h2database/h2
p2704
g1115
sVorg.eclipse.jetty/jetty-server
p2705
g1165
ssg320
(dp2706
Vorg.scala-lang/scala-library
p2707
g1448
sg694
g2105
sg608
g1901
sVorg.scalatest/scalatest_2.12
p2708
g2185
sVorg.scalacheck/scalacheck_2.12
p2709
g1506
sg160
g1015
sVjunit/junit
p2710
g2025
sg150
g1002
ssg322
(dp2711
Vjunit/junit
p2712
g2026
ssg324
(dp2713
g346
g1363
sg744
g2214
sVorg.scala-lang/scala-library
p2714
g1450
sg378
g1414
ssg326
(dp2715
g132
g975
sVorg.scala-lang/scala-reflect
p2716
g1224
sVorg.scala-lang/scala-library
p2717
g1453
ssg328
(dp2718
sg330
(dp2719
sg332
(dp2720
sg334
(dp2721
sg336
(dp2722
sg338
(dp2723
g610
g1903
ssg340
(dp2724
Vorg.apiguardian/apiguardian-api
p2725
g1335
sVorg.junit.platform/junit-platform-commons
p2726
g1805
sVorg.opentest4j/opentest4j
p2727
g1620
ssg342
(dp2728
Vio.dropwizard.metrics/metrics-core
p2729
g1236
sVorg.slf4j/slf4j-simple
p2730
g1256
sVorg.assertj/assertj-core
p2731
g821
sVorg.slf4j/slf4j-api
p2732
g918
sVorg.mockito/mockito-core
p2733
g1082
sVjunit/junit
p2734
g2067
ssg344
(dp2735
sg346
(dp2736
g722
g2156
sVcom.typesafe.play/play-server_2.12
p2737
g1973
sVorg.scala-lang/scala-library
p2738
g1487
ssg348
(dp2739
Vorg.testng/testng
p2740
g965
sg350
g1369
ssg350
(dp2741
g716
g2148
sVjunit/junit
p2742
g2089
ssg352
(dp2743
g542
g1790
sVorg.scala-lang/scala-library
p2744
g1431
sg338
g1351
sVorg.specs2/specs2-core_2.12
p2745
g1861
sg34
g801
sVorg.mockito/mockito-core
p2746
g1065
ssg354
(dp2747
Vcom.google.code.findbugs/jsr305
p2748
g984
sVio.dropwizard.metrics/metrics-core
p2749
g1239
sVjavax.cache/cache-api
p2750
g795
sg454
g1642
sVio.projectreactor/reactor-core
p2751
g968
sVorg.eclipse.jetty/jetty-server
p2752
g1163
sg104
g933
sVnet.sf.ehcache/ehcache
p2753
g2182
sVcom.github.ben-manes.caffeine/caffeine
p2754
g949
sg754
g2224
sVcom.google.guava/guava
p2755
g1148
sVorg.latencyutils/LatencyUtils
p2756
g1996
sg288
g1273
sVorg.hdrhistogram/HdrHistogram
p2757
g1276
sVorg.apache.logging.log4j/log4j-core
p2758
g1769
sVch.qos.logback/logback-classic
p2759
g1583
sg602
g1894
ssg356
(dp2760
Vjunit/junit
p2761
g2015
sg96
g892
ssg358
(dp2762
sg360
(dp2763
sg362
(dp2764
Vorg.scala-lang/scala-library
p2765
g1460
sg300
g1288
sVorg.apache.derby/derby
p2766
g1344
sVorg.specs2/specs2-core_2.10
p2767
g1857
sVcom.h2database/h2
p2768
g1108
sVorg.scalikejdbc/scalikejdbc_2.10
p2769
g2140
sVorg.slf4j/slf4j-api
p2770
g906
sVorg.scalatest/scalatest_2.10
p2771
g2203
sVorg.hsqldb/hsqldb
p2772
g1916
sg458
g1649
sg430
g1569
sVch.qos.logback/logback-classic
p2773
g1593
sg432
g1573
ssg364
(dp2774
sg366
(dp2775
sg368
(dp2776
Vio.netty/netty-transport
p2777
g845
sVio.netty/netty-codec
p2778
g1674
sg488
g1695
ssg370
(dp2779
sg372
(dp2780
Vjavax.servlet/javax.servlet-api
p2781
g2127
sVorg.testng/testng
p2782
g963
sVorg.scala-lang/scala-library
p2783
g1455
sg580
g1858
sVorg.apache.commons/commons-lang3
p2784
g1722
sVorg.slf4j/slf4j-api
p2785
g913
sVorg.scalatest/scalatest_2.10
p2786
g2199
sVjunit/junit
p2787
g2034
sVorg.eclipse.jetty/jetty-webapp
p2788
g1815
sVorg.mockito/mockito-core
p2789
g1076
sVcom.googlecode.juniversalchardet/juniversalchardet
p2790
g1545
sVorg.apache.httpcomponents/httpmime
p2791
g1635
sVorg.apache.httpcomponents/httpclient
p2792
g1909
ssg374
(dp2793
sg376
(dp2794
g354
g1378
sVorg.apache.logging.log4j/log4j-api
p2795
g1217
sVorg.slf4j/slf4j-api
p2796
g915
sVorg.apache.felix/org.apache.felix.framework
p2797
g1302
sVio.dropwizard.metrics/metrics-core
p2798
g1237
sVjunit/junit
p2799
g2053
sVorg.mockito/mockito-core
p2800
g1078
sVorg.hibernate/hibernate-core
p2801
g1171
sVorg.ops4j.pax.url/pax-url-aether
p2802
g1730
sg272
g1250
sVsimple-jndi/simple-jndi
p2803
g1749
sVorg.ops4j.pax.exam/pax-exam-link-mvn
p2804
g858
sg600
g1892
sVorg.javassist/javassist
p2805
g1204
sVio.dropwizard.metrics/metrics-healthchecks
p2806
g1558
sVjavax.inject/javax.inject
p2807
g1049
sg130
g973
sVorg.apache.logging.log4j/log4j-core
p2808
g1768
sg760
g2230
sVorg.postgresql/postgresql
p2809
g1576
sVorg.ops4j.pax.exam/pax-exam-junit4
p2810
g2234
sVorg.ops4j.pax.exam/pax-exam-container-native
p2811
g2153
sVcom.h2database/h2
p2812
g1105
sVorg.ops4j.pax.url/pax-url-reference
p2813
g2158
ssg378
(dp2814
Vorg.specs2/specs2-mock_2.12
p2815
g1374
sVorg.scala-lang/scala-library
p2816
g1474
sVorg.specs2/specs2-junit_2.12
p2817
g2093
sVorg.specs2/specs2-core_2.12
p2818
g1865
sg210
g1145
sg94
g890
sVcom.typesafe.play/play_2.12
p2819
g791
ssg380
(dp2820
sg382
(dp2821
sg384
(dp2822
g416
g1549
sg344
g1361
sg190
g1097
sg634
g1940
sg624
g1926
sg472
g1671
sg366
g1396
sVch.qos.logback/logback-classic
p2823
g1608
sVcom.fasterxml.jackson.core/jackson-databind
p2824
g953
sVjunit/junit
p2825
g2066
ssg386
(dp2826
sg388
(dp2827
sg390
(dp2828
Vorg.scala-sbt/test-interface
p2829
g1796
sVorg.scala-lang/scala-library
p2830
g1481
ssg392
(dp2831
Vorg.scala-lang/scala-reflect
p2832
g1228
sVorg.scala-lang/scala-library
p2833
g1472
sVorg.scala-lang/scala-compiler
p2834
g1328
ssg394
(dp2835
sg396
(dp2836
sg398
(dp2837
g54
g837
sVorg.checkerframework/checker-qual
p2838
g1242
sg452
g1640
sg242
g1195
sVcom.google.guava/guava
p2839
g1150
sVjunit/junit
p2840
g2010
ssg400
(dp2841
g740
g2187
sg632
g1936
sVorg.scala-lang/scala-library
p2842
g1438
ssg402
(dp2843
sg404
(dp2844
Vorg.specs2/specs2-scalacheck_2.12
p2845
g1654
sVorg.scala-sbt/test-interface
p2846
g1795
sVorg.scala-lang/scala-library
p2847
g1440
sVorg.scala-lang/scala-compiler
p2848
g1325
sVorg.specs2/specs2-matcher_2.12
p2849
g1687
sVorg.scala-js/scalajs-stubs_2.12
p2850
g804
sVorg.specs2/specs2-common_2.12
p2851
g1233
sg380
g1417
sVorg.specs2/specs2-core_2.12
p2852
g1866
ssg406
(dp2853
g536
g1780
sVorg.scala-lang/scala-library
p2854
g1498
ssg408
(dp2855
Vcom.mchange/mchange-commons-java
p2856
g1812
ssg410
(dp2857
g650
g1962
ssg412
(dp2858
sg414
(dp2859
sg416
(dp2860
g122
g959
sg214
g1161
sg688
g2098
sg748
g2218
sg148
g1000
sg614
g1907
ssg418
(dp2861
sg420
(dp2862
Vorg.scala-lang/scala-library
p2863
g1435
ssg422
(dp2864
sg424
(dp2865
sg426
(dp2866
Vjavax.activation/activation
p2867
g1341
ssg428
(dp2868
Vorg.scala-lang/scala-library
p2869
g1477
ssg430
(dp2870
Vjunit/junit
p2871
g2072
ssg432
(dp2872
g658
g1971
sg244
g1197
sg654
g1966
sg174
g1039
sVjunit/junit
p2873
g2074
ssg434
(dp2874
Vcom.google.code.findbugs/jsr305
p2875
g986
sg662
g1976
sg398
g1522
sVjunit/junit
p2876
g2077
sVcom.google.guava/guava
p2877
g1152
sg520
g1755
sg44
g815
ssg436
(dp2878
g644
g1955
sVorg.slf4j/slf4j-api
p2879
g924
sg464
g1658
sg594
g1882
ssg438
(dp2880
sg440
(dp2881
sg442
(dp2882
sg444
(dp2883
g324
g1322
sVorg.scala-lang/scala-library
p2884
g1434
ssg446
(dp2885
sg448
(dp2886
sg450
(dp2887
Vorg.specs2/specs2-mock_2.12
p2888
g1371
sVorg.specs2/specs2-junit_2.12
p2889
g2091
sVorg.scala-lang/scala-library
p2890
g1468
sVorg.specs2/specs2-core_2.12
p2891
g1862
sVcom.novocode/junit-interface
p2892
g873
sVorg.scala-lang.modules/scala-java8-compat_2.12
p2893
g2174
sg360
g1386
sVch.qos.logback/logback-classic
p2894
g1598
sVorg.mockito/mockito-core
p2895
g1075
sVcom.typesafe.akka/akka-stream_2.12
p2896
g2107
sVjunit/junit
p2897
g2050
sVorg.easytesting/fest-assert
p2898
g940
ssg452
(dp2899
sg454
(dp2900
Vorg.hamcrest/hamcrest-library
p2901
g830
ssg456
(dp2902
sg458
(dp2903
sg460
(dp2904
g108
g938
sg424
g1559
sVio.dropwizard.metrics/metrics-core
p2905
g1240
sVorg.slf4j/slf4j-simple
p2906
g1259
sg218
g1172
sVjavax.inject/javax.inject
p2907
g1055
sg506
g1731
sVorg.slf4j/slf4j-api
p2908
g911
sg764
g2235
sVorg.apache.felix/org.apache.felix.framework
p2909
g1304
sg518
g1750
sg72
g859
sg720
g2154
sVorg.javassist/javassist
p2910
g1208
sg724
g2159
ssg462
(dp2911
Vorg.scala-sbt/test-interface
p2912
g1789
sVorg.specs2/specs2-core_2.12
p2913
g1860
sVorg.scala-js/scalajs-stubs_2.12
p2914
g800
sVorg.scala-lang/scala-library
p2915
g1433
sVorg.scalacheck/scalacheck_2.12
p2916
g1508
ssg464
(dp2917
g706
g2124
sg628
g1930
sVorg.assertj/assertj-core
p2918
g822
sg672
g1989
sg656
g1969
sVjoda-time/joda-time
p2919
g1827
sVorg.mockito/mockito-core
p2920
g1073
sVjunit/junit
p2921
g2048
sg696
g2110
ssg466
(dp2922
Vorg.scala-lang/scala-library
p2923
g1444
sVcom.h2database/h2
p2924
g1112
sVorg.scalatest/scalatest_2.10
p2925
g2193
sVorg.jvnet.mock-javamail/mock-javamail
p2926
g1307
sVorg.skinny-framework/skinny-logback
p2927
g1707
sVch.qos.logback/logback-classic
p2928
g1588
sVorg.mockito/mockito-core
p2929
g1074
sg382
g1419
sVorg.skinny-framework/skinny-micro-common_2.10
p2930
g1265
sVjoda-time/joda-time
p2931
g1836
ssg468
(dp2932
sg470
(dp2933
g546
g1802
sVjunit/junit
p2934
g2052
sg284
g1268
sg750
g2220
ssg472
(dp2935
sg474
(dp2936
g292
g1280
sg60
g844
sg32
g798
sg558
g1817
sVorg.easymock/easymock
p2937
g1944
sVorg.jmock/jmock-junit4
p2938
g1668
sVorg.hamcrest/hamcrest-library
p2939
g833
sg232
g1185
sg208
g1142
sg514
g1744
sg308
g1296
sg348
g1367
sVorg.javassist/javassist
p2940
g1206
sVch.qos.logback/logback-classic
p2941
g1603
sVorg.mockito/mockito-core
p2942
g1081
sVcom.jcraft/jzlib
p2943
g2180
sVjunit/junit
p2944
g2059
sVorg.easymock/easymockclassextension
p2945
g1741
ssg476
(dp2946
g330
g1332
sg548
g1804
sg440
g1619
ssg478
(dp2947
sg480
(dp2948
Vorg.specs2/specs2-common_2.10
p2949
g2150
sVorg.scala-lang/scala-library
p2950
g1492
ssg482
(dp2951
Vorg.scala-lang/scala-library
p2952
g1501
sVorg.specs2/specs2-common_2.12
p2953
g1232
ssg484
(dp2954
sg486
(dp2955
Vjunit/junit
p2956
g2083
ssg488
(dp2957
Vorg.jmock/jmock-junit4
p2958
g1669
sVorg.hamcrest/hamcrest-library
p2959
g835
sVorg.javassist/javassist
p2960
g1207
sVch.qos.logback/logback-classic
p2961
g1614
sVorg.mockito/mockito-core
p2962
g1093
sVjunit/junit
p2963
g2085
ssg490
(dp2964
Vjunit/junit
p2965
g2009
ssg492
(dp2966
sg494
(dp2967
Vjunit/junit
p2968
g2019
ssg496
(dp2969
Vorg.slf4j/slf4j-api
p2970
g900
sVch.qos.logback/logback-classic
p2971
g1587
ssg498
(dp2972
sg500
(dp2973
sg502
(dp2974
Vorg.junit.jupiter/junit-jupiter-api
p2975
g1676
sVorg.junit.jupiter/junit-jupiter-params
p2976
g1847
ssg504
(dp2977
sg506
(dp2978
sg508
(dp2979
Vorg.jboss.shrinkwrap/shrinkwrap-api
p2980
g2137
ssg510
(dp2981
sg512
(dp2982
Vorg.easymock/easymock
p2983
g1943
sVjunit/junit
p2984
g2040
ssg514
(dp2985
g128
g971
ssg516
(dp2986
Vorg.slf4j/slf4j-api
p2987
g909
sg66
g851
sVjunit/junit
p2988
g2044
ssg518
(dp2989
sg520
(dp2990
Vcom.google.code.findbugs/jsr305
p2991
g990
sVorg.checkerframework/checker-qual
p2992
g1243
sVcom.google.errorprone/error_prone_annotations
p2993
g1699
sVcom.google.truth/truth
p2994
g1527
sVcom.google.guava/guava
p2995
g1149
sVcom.google.j2objc/j2objc-annotations
p2996
g2004
sVjunit/junit
p2997
g2032
ssg522
(dp2998
sg524
(dp2999
sg526
(dp3000
g342
g1357
sVorg.scala-lang/scala-library
p3001
g1480
sVcom.typesafe.akka/akka-actor_2.12
p3002
g2162
sVorg.scalatest/scalatest_2.12
p3003
g2190
sg678
g1997
sg290
g1278
sg264
g1238
sVjunit/junit
p3004
g2060
ssg528
(dp3005
sg530
(dp3006
g64
g849
sVcom.typesafe.play/play-specs2_2.12
p3007
g1627
sg704
g2121
sVcom.typesafe.play/play-test_2.12
p3008
g1323
sVorg.scala-lang/scala-library
p3009
g1484
ssg532
(dp3010
sg534
(dp3011
Vcom.typesafe.play/play-specs2_2.12
p3012
g1629
sVorg.scala-lang/scala-library
p3013
g1478
sVcom.typesafe.play/play_2.12
p3014
g789
ssg536
(dp3015
g116
g947
sg200
g1132
sg652
g1964
sVorg.scala-lang/scala-library
p3016
g1488
ssg538
(dp3017
Vcom.typesafe/config
p3018
g1045
sVorg.scalikejdbc/scalikejdbc-core_2.10
p3019
g1987
sVorg.scala-lang/scala-library
p3020
g1502
sVorg.apache.derby/derby
p3021
g1348
sVorg.xerial/sqlite-jdbc
p3022
g1567
sVcom.h2database/h2
p3023
g1106
sVorg.slf4j/slf4j-api
p3024
g926
sVorg.scalatest/scalatest_2.10
p3025
g2197
sVorg.hsqldb/hsqldb
p3026
g1919
sVmysql/mysql-connector-java
p3027
g1647
sVch.qos.logback/logback-classic
p3028
g1586
sVorg.postgresql/postgresql
p3029
g1577
ssg540
(dp3030
Vjavax.servlet/javax.servlet-api
p3031
g2123
sVorg.scala-lang/scala-library
p3032
g1430
sVorg.skinny-framework/scalatra-test_2.10
p3033
g1403
sg282
g1263
sVorg.slf4j/slf4j-api
p3034
g894
sVch.qos.logback/logback-classic
p3035
g1581
sVcom.googlecode.juniversalchardet/juniversalchardet
p3036
g1543
sg728
g2167
ssg542
(dp3037
g742
g2194
ssg544
(dp3038
sg546
(dp3039
sg548
(dp3040
Vorg.apiguardian/apiguardian-api
p3041
g1334
ssg550
(dp3042
Vorg.reactivestreams/reactive-streams
p3043
g1389
sVorg.mockito/mockito-core
p3044
g1071
sVjunit/junit
p3045
g2017
sVcom.google.guava/guava
p3046
g1154
ssg552
(dp3047
sg554
(dp3048
Vcom.typesafe/config
p3049
g1044
sVorg.apache.logging.log4j/log4j-api
p3050
g1218
sVcom.novocode/junit-interface
p3051
g871
sVorg.slf4j/slf4j-api
p3052
g908
sVjunit/junit
p3053
g2042
sVch.qos.logback/logback-classic
p3054
g1594
sg528
g1771
sVlog4j/log4j
p3055
g864
ssg556
(dp3056
sg558
(dp3057
sg560
(dp3058
sg562
(dp3059
sg564
(dp3060
sg566
(dp3061
sg568
(dp3062
sg570
(dp3063
sg572
(dp3064
Vorg.junit.jupiter/junit-jupiter-api
p3065
g1679
sVorg.apiguardian/apiguardian-api
p3066
g1336
ssg574
(dp3067
sg576
(dp3068
Vorg.junit.jupiter/junit-jupiter-api
p3069
g1677
sVorg.apiguardian/apiguardian-api
p3070
g1333
sg340
g1355
ssg578
(dp3071
Vjunit/junit
p3072
g2054
sVcommons-logging/commons-logging
p3073
g2097
sVorg.jmock/jmock-junit4
p3074
g1664
sVorg.hamcrest/hamcrest-library
p3075
g831
sVorg.slf4j/slf4j-api
p3076
g919
sVorg.easymock/easymockclassextension
p3077
g1737
sVorg.javassist/javassist
p3078
g1205
sVch.qos.logback/logback-classic
p3079
g1601
sVorg.mockito/mockito-core
p3080
g1079
sVorg.easymock/easymock
p3081
g1941
sVlog4j/log4j
p3082
g861
ssg580
(dp3083
Vorg.scalamacros/quasiquotes_2.10
p3084
g1134
sVorg.scala-sbt/test-interface
p3085
g1792
sVorg.scala-lang/scala-library
p3086
g1451
sg480
g1684
sg718
g2151
sVorg.mockito/mockito-core
p3087
g1086
sVjunit/junit
p3088
g2078
ssg582
(dp3089
Vorg.scala-sbt/test-interface
p3090
g1793
sVorg.scala-lang/scala-library
p3091
g1443
sg482
g1686
sVorg.scala-js/scalajs-stubs_2.12
p3092
g803
sg262
g1234
sVorg.mockito/mockito-core
p3093
g1087
sVjunit/junit
p3094
g2068
ssg584
(dp3095
g640
g1951
ssg586
(dp3096
sg588
(dp3097
sg590
(dp3098
Vorg.scala-lang/scala-library
p3099
g1449
ssg592
(dp3100
sg594
(dp3101
sg596
(dp3102
g502
g1720
sg476
g1680
sg572
g1848
ssg598
(dp3103
g310
g1298
ssg600
(dp3104
sg602
(dp3105
sg604
(dp3106
sg606
(dp3107
g68
g854
ssg608
(dp3108
Vorg.scala-lang/scala-library
p3109
g1476
sVcom.typesafe.akka/akka-stream_2.12
p3110
g2108
sVorg.scalatest/scalatest_2.12
p3111
g2188
sVorg.scalacheck/scalacheck_2.12
p3112
g1509
sVcom.typesafe.akka/akka-testkit_2.12
p3113
g1766
sVjunit/junit
p3114
g2062
ssg610
(dp3115
sg612
(dp3116
sg614
(dp3117
sg616
(dp3118
Vjunit/junit
p3119
g2031
ssg618
(dp3120
sg620
(dp3121
Vjunit/junit
p3122
g2073
ssg622
(dp3123
sg624
(dp3124
sg626
(dp3125
g138
g982
sVcommons-logging/commons-logging
p3126
g2099
sg690
g2102
sg500
g1718
sg332
g1338
sg252
g1212
sVjunit/junit
p3127
g2013
ssg628
(dp3128
g388
g1504
sVjunit/junit
p3129
g2027
sVorg.apache.ant/ant
p3130
g1623
ssg630
(dp3131
g674
g1991
sg494
g1704
sVjavax.xml.bind/jaxb-api
p3132
g1898
ssg632
(dp3133
sg634
(dp3134
g166
g1023
sg586
g1875
sVorg.testng/testng
p3135
g964
sVjunit/junit
p3136
g2033
ssg636
(dp3137
sg638
(dp3138
g444
g1630
sg530
g1773
sg386
g1458
ssg640
(dp3139
sg642
(dp3140
Vorg.reactivestreams/reactive-streams
p3141
g1390
sVio.reactivex/rxjava
p3142
g1517
ssg644
(dp3143
g28
g793
sVorg.slf4j/slf4j-api
p3144
g904
sVorg.slf4j/slf4j-log4j12
p3145
g997
sg24
g785
sg620
g1921
sVjunit/junit
p3146
g2024
ssg646
(dp3147
sg648
(dp3148
sg650
(dp3149
g574
g1851
sVcom.google.code.findbugs/jsr305
p3150
g985
ssg652
(dp3151
Vorg.scala-lang/scala-library
p3152
g1473
ssg654
(dp3153
sg656
(dp3154
Vjunit/junit
p3155
g2058
ssg658
(dp3156
sg660
(dp3157
Vorg.specs2/specs2-mock_2.12
p3158
g1375
sVorg.scala-lang/scala-library
p3159
g1483
sVorg.specs2/specs2-junit_2.12
p3160
g2095
sVorg.specs2/specs2-core_2.12
p3161
g1869
sVcom.typesafe.play/play-guice_2.12
p3162
g1415
sVcom.google.guava/guava
p3163
g1147
sVch.qos.logback/logback-classic
p3164
g1605
sVcom.typesafe.play/play_2.12
p3165
g790
ssg662
(dp3166
sg664
(dp3167
g422
g1556
sg540
g1784
sg236
g1189
sg466
g1660
sg698
g2113
sVorg.scala-lang/scala-library
p3168
g1490
sg372
g1406
sg358
g1382
sVcom.h2database/h2
p3169
g1104
sg318
g1316
sg246
g1199
sVorg.scalatest/scalatest_2.10
p3170
g2207
sVcommons-io/commons-io
p3171
g1026
sg88
g883
sVorg.jvnet.mock-javamail/mock-javamail
p3172
g1309
sVorg.skinny-framework/skinny-logback
p3173
g1709
sg38
g809
sg198
g1129
sVch.qos.logback/logback-classic
p3174
g1610
sVorg.mockito/mockito-core
p3175
g1088
sVjavax.servlet/javax.servlet-api
p3176
g2128
ssg666
(dp3177
sg668
(dp3178
Vorg.json4s/json4s-native_2.10
p3179
g1537
sVorg.joda/joda-convert
p3180
g1423
sVorg.scala-lang/scala-library
p3181
g1491
sVjoda-time/joda-time
p3182
g1835
ssg670
(dp3183
Vorg.scalamacros/quasiquotes_2.10
p3184
g1136
sg478
g1682
sVorg.scala-lang/scala-library
p3185
g1432
sVorg.hibernate/hibernate-core
p3186
g1168
sVorg.xerial/sqlite-jdbc
p3187
g1568
sVcom.h2database/h2
p3188
g1111
sVorg.apache.derby/derby
p3189
g1343
sg376
g1411
sg626
g1928
sVorg.slf4j/slf4j-api
p3190
g896
sVorg.scalatest/scalatest_2.10
p3191
g2208
sVorg.hsqldb/hsqldb
p3192
g1913
sVmysql/mysql-connector-java
p3193
g1648
sVch.qos.logback/logback-classic
p3194
g1595
sVorg.mockito/mockito-core
p3195
g1063
sVorg.postgresql/postgresql
p3196
g1572
sg254
g1214
ssg672
(dp3197
g334
g1340
sVjunit/junit
p3198
g2071
ssg674
(dp3199
sg676
(dp3200
Vorg.mockito/mockito-all
p3201
g937
sVjunit/junit
p3202
g2036
sg76
g867
sVorg.hsqldb/hsqldb
p3203
g1917
sVorg.assertj/assertj-core
p3204
g825
sVorg.apache.commons/commons-lang3
p3205
g1725
sg364
g1394
sVorg.aspectj/aspectjweaver
p3206
g1842
sg446
g1632
sg216
g1164
sg564
g1825
sVjavax.servlet/servlet-api
p3207
g1011
sg58
g842
sVlog4j/log4j
p3208
g865
ssg678
(dp3209
Vorg.hdrhistogram/HdrHistogram
p3210
g1275
sVjunit/junit
p3211
g2020
ssg680
(dp3212
sg682
(dp3213
sg684
(dp3214
Vorg.hamcrest/hamcrest-core
p3215
g1350
sg52
g834
ssg686
(dp3216
Vorg.specs2/specs2-mock_2.12
p3217
g1372
sVorg.scala-sbt/test-interface
p3218
g1791
sVorg.scala-lang/scala-library
p3219
g1452
sVorg.specs2/specs2-core_2.12
p3220
g1863
sVorg.scala-js/scalajs-stubs_2.12
p3221
g802
sVorg.mockito/mockito-core
p3222
g1070
sVjunit/junit
p3223
g2030
sg46
g817
ssg688
(dp3224
g156
g1009
sg114
g945
sVjunit/junit
p3225
g2075
sVlog4j/log4j
p3226
g862
sg274
g1252
ssg690
(dp3227
sg692
(dp3228
sg694
(dp3229
Vorg.scala-lang/scala-library
p3230
g1464
sVcom.typesafe/ssl-config-core_2.12
p3231
g1059
sVcom.typesafe.akka/akka-actor_2.12
p3232
g2161
sVorg.reactivestreams/reactive-streams
p3233
g1387
sVorg.scalatest/scalatest_2.12
p3234
g2186
sg420
g1553
ssg696
(dp3235
sg698
(dp3236
Vorg.skinny-framework/skinny-common_2.10
p3237
g1130
sVorg.scala-lang/scala-library
p3238
g1459
sVcom.h2database/h2
p3239
g1101
sVjavax.mail/mail
p3240
g1561
sVorg.slf4j/slf4j-api
p3241
g907
sVorg.scalatest/scalatest_2.10
p3242
g2205
sVorg.jvnet.mock-javamail/mock-javamail
p3243
g1308
sVorg.skinny-framework/skinny-logback
p3244
g1708
sVch.qos.logback/logback-classic
p3245
g1592
sVorg.mockito/mockito-core
p3246
g1069
sVorg.joda/joda-convert
p3247
g1420
sVjoda-time/joda-time
p3248
g1829
ssg700
(dp3249
sg702
(dp3250
Vcom.google.code.findbugs/jsr305
p3251
g987
sVcom.google.errorprone/error_prone_annotations
p3252
g1698
sVcom.google.truth/truth
p3253
g1526
sg14
g775
sVjunit/junit
p3254
g2063
sVcom.google.guava/guava
p3255
g1151
sg152
g1004
sg90
g885
ssg704
(dp3256
Vcom.typesafe.play/play-specs2_2.12
p3257
g1628
sg534
g1777
sVorg.scala-lang/scala-library
p3258
g1456
sVcom.typesafe.play/play_2.12
p3259
g788
ssg706
(dp3260
sg708
(dp3261
sg710
(dp3262
Vjunit/junit
p3263
g2011
ssg712
(dp3264
g86
g880
sVorg.scalatest/scalatest_2.10
p3265
g2206
sg670
g1984
sVcom.h2database/h2
p3266
g1110
sVorg.scala-lang/scala-library
p3267
g1489
ssg714
(dp3268
sg716
(dp3269
g508
g1733
sg710
g2138
ssg718
(dp3270
Vorg.scalamacros/quasiquotes_2.10
p3271
g1135
sVorg.scala-lang/scala-library
p3272
g1493
sg206
g1140
sVorg.scala-lang/scala-reflect
p3273
g1225
sg746
g2216
sg418
g1551
ssg720
(dp3274
sg722
(dp3275
g188
g1095
sg294
g1282
sg154
g1006
sg124
g966
sVcom.typesafe.akka/akka-stream_2.12
p3276
g2106
ssg724
(dp3277
sg726
(dp3278
g176
g1041
sVorg.scala-lang.modules/scala-java8-compat_2.12
p3279
g2173
sVorg.scala-lang/scala-library
p3280
g1457
ssg728
(dp3281
Vcom.typesafe/config
p3282
g1042
sVorg.scala-lang/scala-library
p3283
g1436
ssg730
(dp3284
sg732
(dp3285
g504
g1726
sVorg.scala-lang/scala-library
p3286
g1497
sVjunit/junit
p3287
g2080
sVcom.novocode/junit-interface
p3288
g872
ssg734
(dp3289
sg736
(dp3290
sg738
(dp3291
Vorg.slf4j/slf4j-api
p3292
g898
ssg740
(dp3293
sg742
(dp3294
sg744
(dp3295
g320
g1318
sg352
g1373
sg686
g2092
sg450
g1637
sg582
g1864
sVcom.typesafe.play/play-guice_2.12
p3296
g1413
sVorg.scala-lang/scala-library
p3297
g1470
sg660
g1974
ssg746
(dp3298
Vorg.scala-sbt/test-interface
p3299
g1797
sVorg.scala-lang/scala-library
p3300
g1496
ssg748
(dp3301
sg750
(dp3302
Vorg.junit.jupiter/junit-jupiter-api
p3303
g1678
sg576
g1853
sVorg.junit.jupiter/junit-jupiter-params
p3304
g1849
sVorg.jmock/jmock
p3305
g1269
ssg752
(dp3306
sg754
(dp3307
Vorg.slf4j/slf4j-api
p3308
g897
sVorg.hdrhistogram/HdrHistogram
p3309
g1277
sVio.reactivex/rxjava
p3310
g1518
sg82
g876
ssg756
(dp3311
Vcom.typesafe.akka/akka-actor_2.12
p3312
g2163
sVorg.slf4j/slf4j-api
p3313
g917
sVch.qos.logback/logback-classic
p3314
g1604
sVorg.scala-lang/scala-library
p3315
g1482
sVcom.typesafe.akka/akka-testkit_2.12
p3316
g1764
ssg758
(dp3317
sg760
(dp3318
sg762
(dp3319
Vjavax.xml.ws/jaxws-api
p3320
g1933
sVjoda-time/joda-time
p3321
g1838
sg492
g1702
sg616
g1911
sVjavax.inject/javax.inject
p3322
g1050
sg636
g1948
sg16
g777
sg42
g813
sVorg.aspectj/aspectjweaver
p3323
g1845
sg456
g1644
sVjavax.annotation/javax.annotation-api
p3324
g1992
sg258
g1220
sg100
g928
sg224
g1178
sVorg.springframework/spring-core
p3325
g1121
sg612
g1905
sVorg.jetbrains.kotlin/kotlin-stdlib
p3326
g2002
sVorg.jetbrains.kotlin/kotlin-reflect
p3327
g1762
sg250
g1210
sVorg.springframework/spring-beans
p3328
g1034
ssg764
(dp3329
sg766
(dp3330
Vorg.scalikejdbc/scalikejdbc-core_2.10
p3331
g1985
sVorg.scalatest/scalatest_2.10
p3332
g2202
sVorg.scala-lang/scala-reflect
p3333
g1226
sVorg.scala-lang/scala-library
p3334
g1463
sVorg.scala-lang/scala-compiler
p3335
g1326
sssS'_adj'
p3336
g2239
sS'adjlist_outer_dict_factory'
p3337
g7
sb.