ccopy_reg
_reconstructor
p0
(cnetworkx.classes.digraph
DiGraph
p1
c__builtin__
object
p2
Ntp3
Rp4
(dp5
S'adjlist_inner_dict_factory'
p6
c__builtin__
dict
p7
sS'node_dict_factory'
p8
g7
sS'edge_attr_dict_factory'
p9
g7
sS'_node'
p10
(dp11
S"('wxruby', '2.0.1')"
p12
(dp13
sS"('actionpack', '3.2.22.5')"
p14
(dp15
sS"('application_seeds', '0.6.0')"
p16
(dp17
sS"('ffi', '1.10.0')"
p18
(dp19
sS"('arrayfields', '4.9.0')"
p20
(dp21
sS"('rack', '1.6.11')"
p22
(dp23
sS"('nokogumbo', '1.5.0')"
p24
(dp25
sS"('polymer-rails', '1.0.0')"
p26
(dp27
sS"('rack', '1.4.7')"
p28
(dp29
sS"('rack-protection', '1.5.5')"
p30
(dp31
sS"('nokogiri', '1.10.1')"
p32
(dp33
sS"('sinatra', '1.4.6')"
p34
(dp35
sS"('railties', '3.2.22.5')"
p36
(dp37
sS"('sprockets', '2.12.5')"
p38
(dp39
sS"('concurrent-ruby', '1.1.4')"
p40
(dp41
sS"('nfnetlink', '1.0.2')"
p42
(dp43
sS"('rake', '12.3.2')"
p44
(dp45
sS"('thor', '0.20.3')"
p46
(dp47
sS"('require', '0.2.5')"
p48
(dp49
sS"('tilt', '2.0.9')"
p50
(dp51
sS"('mini_portile2', '2.4.0')"
p52
(dp53
sS"('activesupport', '3.2.22.5')"
p54
(dp55
sS"('madvertise-logging', '0.7.3')"
p56
(dp57
sS"('git-hub', '1.1.0')"
p58
(dp59
sS"('rack-test', '0.6.3')"
p60
(dp61
sS"('rack', '2.0.6')"
p62
(dp63
sS"('luca', '0.7.4')"
p64
(dp65
sS"('nfqueue', '1.0.3')"
p66
(dp67
sS"('i18n', '0.9.5')"
p68
(dp69
sS"('rails', '4.2.11')"
p70
(dp71
sS"('minitest', '5.8.4')"
p72
(dp73
ssS'graph'
p74
(dp75
sS'_pred'
p76
(dp77
g12
(dp78
sg14
(dp79
g36
(dp80
ssg16
(dp81
sg18
(dp82
g66
(dp83
ssg20
(dp84
sg22
(dp85
g34
(dp86
ssg24
(dp87
g26
(dp88
ssg26
(dp89
sg28
(dp90
g14
(dp91
ssg30
(dp92
g34
(dp93
ssg32
(dp94
g24
(dp95
sg26
(dp96
ssg34
(dp97
g64
(dp98
ssg36
(dp99
g64
(dp100
ssg38
(dp101
g26
(dp102
ssg40
(dp103
g54
(dp104
ssg42
(dp105
g66
(dp106
ssg44
(dp107
g36
(dp108
ssg46
(dp109
g36
(dp110
sg64
(dp111
ssg48
(dp112
sg50
(dp113
g34
(dp114
ssg52
(dp115
g32
(dp116
ssg54
(dp117
g36
(dp118
sg14
(dp119
ssg56
(dp120
sg58
(dp121
sg60
(dp122
g14
(dp123
ssg62
(dp124
g30
(dp125
sg60
(dp126
ssg64
(dp127
sg66
(dp128
sg68
(dp129
g54
(dp130
ssg70
(dp131
g26
(dp132
ssg72
(dp133
g54
(dp134
sssS'_succ'
p135
(dp136
g12
(dp137
sg14
(dp138
g60
g123
sS"('activesupport', '3.2.22.5')"
p139
g119
sg28
g91
ssg16
(dp140
sg18
(dp141
sg20
(dp142
sg22
(dp143
sg24
(dp144
S"('nokogiri', '1.10.1')"
p145
g95
ssg26
(dp146
g24
g88
sg32
g96
sg70
g132
sg38
g102
ssg28
(dp147
sg30
(dp148
g62
g125
ssg32
(dp149
g52
g116
ssg34
(dp150
g30
g93
sg50
g114
sg22
g86
ssg36
(dp151
g14
g80
sg44
g108
sg54
g118
sS"('thor', '0.20.3')"
p152
g110
ssg38
(dp153
sg40
(dp154
sg42
(dp155
sg44
(dp156
sg46
(dp157
sg48
(dp158
sg50
(dp159
sg52
(dp160
sg54
(dp161
g68
g130
sg72
g134
sg40
g104
ssg56
(dp162
sg58
(dp163
sg60
(dp164
S"('rack', '2.0.6')"
p165
g126
ssg62
(dp166
sg64
(dp167
g36
g100
sg34
g98
sg46
g111
ssg66
(dp168
g42
g106
sg18
g83
ssg68
(dp169
sg70
(dp170
sg72
(dp171
ssS'_adj'
p172
g136
sS'adjlist_outer_dict_factory'
p173
g7
sb.