ccopy_reg
_reconstructor
p0
(cnetworkx.classes.digraph
DiGraph
p1
c__builtin__
object
p2
Ntp3
Rp4
(dp5
S'adjlist_inner_dict_factory'
p6
c__builtin__
dict
p7
sS'node_dict_factory'
p8
g7
sS'edge_attr_dict_factory'
p9
g7
sS'_node'
p10
(dp11
S"('gl-surface3d', '1.0.5')"
p12
(dp13
sS"('lodash', '3.10.1')"
p14
(dp15
sS"('underscore.string', '2.3.3')"
p16
(dp17
sS"('loopback-swagger', '2.8.0')"
p18
(dp19
sS"('value-equal', '0.5.1')"
p20
(dp21
sS"('is-generator-function', '1.0.3')"
p22
(dp23
sS"('strong-globalize', '2.10.0')"
p24
(dp25
sS"('async', '1.5.2')"
p26
(dp27
sS"('nodemailer', '3.1.8')"
p28
(dp29
sS"('validator', '9.2.0')"
p30
(dp31
sS"('ejs', '1.0.0')"
p32
(dp33
sS"('class-validator', '0.8.5')"
p34
(dp35
sS"('debug', '2.6.9')"
p36
(dp37
sS"('smtp-connection', '4.0.1')"
p38
(dp39
ssS'graph'
p40
(dp41
sS'_pred'
p42
(dp43
g12
(dp44
sg14
(dp45
g18
(dp46
ssg16
(dp47
g18
(dp48
ssg18
(dp49
sg20
(dp50
sg22
(dp51
sg24
(dp52
g18
(dp53
ssg26
(dp54
g18
(dp55
ssg28
(dp56
g38
(dp57
ssg30
(dp58
g34
(dp59
ssg32
(dp60
g18
(dp61
ssg34
(dp62
sg36
(dp63
g18
(dp64
ssg38
(dp65
ssS'_succ'
p66
(dp67
g12
(dp68
sg14
(dp69
sg16
(dp70
sg18
(dp71
g14
g46
sg16
g48
sg32
g61
sg24
g53
sg26
g55
sg36
g64
ssg20
(dp72
sg22
(dp73
sg24
(dp74
sg26
(dp75
sg28
(dp76
sg30
(dp77
sg32
(dp78
sg34
(dp79
g30
g59
ssg36
(dp80
sg38
(dp81
g28
g57
sssS'_adj'
p82
g67
sS'adjlist_outer_dict_factory'
p83
g7
sb.