ccopy_reg
_reconstructor
p0
(cnetworkx.classes.digraph
DiGraph
p1
c__builtin__
object
p2
Ntp3
Rp4
(dp5
S'adjlist_inner_dict_factory'
p6
c__builtin__
dict
p7
sS'node_dict_factory'
p8
g7
sS'edge_attr_dict_factory'
p9
g7
sS'_node'
p10
(dp11
S"('Pillow', '5.4.1')"
p12
(dp13
sS"('pytz', '2018.9')"
p14
(dp15
sS"('pymatsolver', '0.1.2')"
p16
(dp17
sS"('ipython', '5.8.0')"
p18
(dp19
sS"('webencodings', '0.5.1')"
p20
(dp21
sS"('pytest', '4.3.0')"
p22
(dp23
sS"('discretize', '0.3.4')"
p24
(dp25
sS"('flake8-polyfill', '1.0.2')"
p26
(dp27
sS"('pyasn1-modules', '0.2.4')"
p28
(dp29
sS"('snowballstemmer', '1.2.1')"
p30
(dp31
sS"('html5lib', '1.0.1')"
p32
(dp33
sS"('httplib2', '0.12.1')"
p34
(dp35
sS"('pyMKL', '0.0.3')"
p36
(dp37
sS"('kiwisolver', '1.0.1')"
p38
(dp39
sS"('django-sekizai', '0.10.0')"
p40
(dp41
sS"('subprocess32', '3.5.3')"
p42
(dp43
sS"('rsa', '4.0')"
p44
(dp45
sS"('dj-redis-url', '0.1.3')"
p46
(dp47
sS"('oauth2client', '3.0.0')"
p48
(dp49
sS"('pyparsing', '2.3.1')"
p50
(dp51
sS"('chardet', '3.0.4')"
p52
(dp53
sS"('django-formtools', '2.1')"
p54
(dp55
sS"('numpy', '1.16.1')"
p56
(dp57
sS"('djangocms-admin-style', '1.3.0')"
p58
(dp59
sS"('djangocms-text-ckeditor', '3.7.0')"
p60
(dp61
sS"('configparser', '3.7.1')"
p62
(dp63
sS"('scipy', '1.2.1')"
p64
(dp65
sS"('django-classy-tags', '0.8.0')"
p66
(dp67
sS"('djangocms-cascade', '0.16.3')"
p68
(dp69
sS"('Django', '1.11.20')"
p70
(dp71
sS"('django-cms', '3.6.0')"
p72
(dp73
sS"('jsonfield', '2.0.2')"
p74
(dp75
sS"('pydocstyle', '3.0.0')"
p76
(dp77
sS"('pytest-fixture-config', '1.3.0')"
p78
(dp79
sS"('pyasn1', '0.4.5')"
p80
(dp81
sS"('Cython', '0.29.5')"
p82
(dp83
sS"('lxml', '4.2.3')"
p84
(dp85
sS"('django-treebeard', '4.3')"
p86
(dp87
sS"('flake8', '3.7.6')"
p88
(dp89
sS"('backports.functools-lru-cache', '1.5')"
p90
(dp91
sS"('cycler', '0.10.0')"
p92
(dp93
sS"('matplotlib', '2.2.3')"
p94
(dp95
sS"('mdtraj', '1.4.2')"
p96
(dp97
sS"('six', '1.12.0')"
p98
(dp99
sS"('flake8-docstrings', '1.0.3')"
p100
(dp101
sS"('python-dateutil', '2.8.0')"
p102
(dp103
sS"('properties', '0.5.5')"
p104
(dp105
ssS'graph'
p106
(dp107
sS'_pred'
p108
(dp109
g12
(dp110
g60
(dp111
ssg14
(dp112
g94
(dp113
ssg16
(dp114
g24
(dp115
ssg18
(dp116
g24
(dp117
ssg20
(dp118
g32
(dp119
ssg22
(dp120
g78
(dp121
ssg24
(dp122
sg26
(dp123
g100
(dp124
ssg28
(dp125
g48
(dp126
ssg30
(dp127
g76
(dp128
ssg32
(dp129
g60
(dp130
ssg34
(dp131
g48
(dp132
ssg36
(dp133
g16
(dp134
ssg38
(dp135
g94
(dp136
ssg40
(dp137
g72
(dp138
ssg42
(dp139
g94
(dp140
ssg44
(dp141
g48
(dp142
ssg46
(dp143
sg48
(dp144
sg50
(dp145
g94
(dp146
ssg52
(dp147
g32
(dp148
ssg54
(dp149
g72
(dp150
ssg56
(dp151
g24
(dp152
sg16
(dp153
sg94
(dp154
sg64
(dp155
ssg58
(dp156
g72
(dp157
ssg60
(dp158
g68
(dp159
ssg62
(dp160
g76
(dp161
ssg64
(dp162
g24
(dp163
sg16
(dp164
ssg66
(dp165
g40
(dp166
sg68
(dp167
sg72
(dp168
ssg68
(dp169
sg70
(dp170
g66
(dp171
sg54
(dp172
sg72
(dp173
sg74
(dp174
ssg72
(dp175
g60
(dp176
sg68
(dp177
ssg74
(dp178
g68
(dp179
ssg76
(dp180
g100
(dp181
ssg78
(dp182
sg80
(dp183
g44
(dp184
sg28
(dp185
sg48
(dp186
ssg82
(dp187
g24
(dp188
ssg84
(dp189
g32
(dp190
ssg86
(dp191
g72
(dp192
ssg88
(dp193
g26
(dp194
sg100
(dp195
ssg90
(dp196
g94
(dp197
ssg92
(dp198
g94
(dp199
ssg94
(dp200
g24
(dp201
ssg96
(dp202
sg98
(dp203
g32
(dp204
sg94
(dp205
sg104
(dp206
sg76
(dp207
sg78
(dp208
sg102
(dp209
sg48
(dp210
ssg100
(dp211
sg102
(dp212
g94
(dp213
ssg104
(dp214
g24
(dp215
sssS'_succ'
p216
(dp217
g12
(dp218
sg14
(dp219
sg16
(dp220
g36
g134
sS"('numpy', '1.16.1')"
p221
g153
sS"('scipy', '1.2.1')"
p222
g164
ssg18
(dp223
sg20
(dp224
sg22
(dp225
sg24
(dp226
g16
g115
sg82
g188
sg64
g163
sg94
g201
sg18
g117
sg56
g152
sg104
g215
ssg26
(dp227
S"('flake8', '3.7.6')"
p228
g194
ssg28
(dp229
S"('pyasn1', '0.4.5')"
p230
g185
ssg30
(dp231
sg32
(dp232
S"('six', '1.12.0')"
p233
g204
sg84
g190
sg20
g119
sg52
g148
ssg34
(dp234
sg36
(dp235
sg38
(dp236
sg40
(dp237
S"('django-classy-tags', '0.8.0')"
p238
g166
ssg42
(dp239
sg44
(dp240
S"('pyasn1', '0.4.5')"
p241
g184
ssg46
(dp242
sg48
(dp243
S"('six', '1.12.0')"
p244
g210
sg34
g132
sg80
g186
sg28
g126
sg44
g142
ssg50
(dp245
sg52
(dp246
sg54
(dp247
S"('Django', '1.11.20')"
p248
g172
ssg56
(dp249
sg58
(dp250
sg60
(dp251
g32
g130
sS"('django-cms', '3.6.0')"
p252
g176
sg12
g111
ssg62
(dp253
sg64
(dp254
S"('numpy', '1.16.1')"
p255
g155
ssg66
(dp256
S"('Django', '1.11.20')"
p257
g171
ssg68
(dp258
g74
g179
sg60
g159
sg72
g177
sg66
g167
ssg70
(dp259
sg72
(dp260
g86
g192
sg54
g150
sg40
g138
sS"('django-classy-tags', '0.8.0')"
p261
g168
sS"('Django', '1.11.20')"
p262
g173
sg58
g157
ssg74
(dp263
g70
g174
ssg76
(dp264
g62
g161
sg98
g207
sg30
g128
ssg78
(dp265
S"('six', '1.12.0')"
p266
g208
sg22
g121
ssg80
(dp267
sg82
(dp268
sg84
(dp269
sg86
(dp270
sg88
(dp271
sg90
(dp272
sg92
(dp273
sg94
(dp274
g14
g113
sg90
g197
sg38
g136
sg42
g140
sg92
g199
sS"('six', '1.12.0')"
p275
g205
sS"('numpy', '1.16.1')"
p276
g154
sg50
g146
sg102
g213
ssg96
(dp277
sg98
(dp278
sg100
(dp279
g26
g124
sg88
g195
sg76
g181
ssg102
(dp280
S"('six', '1.12.0')"
p281
g209
ssg104
(dp282
S"('six', '1.12.0')"
p283
g206
sssS'_adj'
p284
g217
sS'adjlist_outer_dict_factory'
p285
g7
sb.