ccopy_reg
_reconstructor
p0
(cnetworkx.classes.digraph
DiGraph
p1
c__builtin__
object
p2
Ntp3
Rp4
(dp5
S'adjlist_inner_dict_factory'
p6
c__builtin__
dict
p7
sS'node_dict_factory'
p8
g7
sS'edge_attr_dict_factory'
p9
g7
sS'_node'
p10
(dp11
Vzfcampus/zf-hal
p12
(dp13
sVwatoki/collections
p14
(dp15
sVzendframework/zend-eventmanager
p16
(dp17
sVzendframework/zend-config
p18
(dp19
sVbower-asset/inputmask
p20
(dp21
sVzfcampus/zf-apigility-provider
p22
(dp23
sVarckinteractive/image_orientation
p24
(dp25
sVzendframework/zend-console
p26
(dp27
sVdrupal/impliedconsent
p28
(dp29
sVzendframework/zend-db
p30
(dp31
sVzendframework/zend-json
p32
(dp33
sVbower-asset/jquery
p34
(dp35
sVzfcampus/zf-apigility
p36
(dp37
sVplatx/yii2-migration
p38
(dp39
sVcontainer-interop/container-interop
p40
(dp41
sVzendframework/zend-crypt
p42
(dp43
sVzendframework/zend-modulemanager
p44
(dp45
sVbower-asset/yii2-pjax
p46
(dp47
sVpapaya/module-pixelcounter
p48
(dp49
sVzendframework/zend-form
p50
(dp51
sVzendframework/zend-permissions-rbac
p52
(dp53
sVwatoki/karma
p54
(dp55
sVpsr/log
p56
(dp57
sVzendframework/zend-hydrator
p58
(dp59
sVezyang/htmlpurifier
p60
(dp61
sVimagine/imagine
p62
(dp63
sVstechy1/html
p64
(dp65
sVinfernobass7/laravel-print-node
p66
(dp67
sVpsr/link
p68
(dp69
sVpapaya/cms-core
p70
(dp71
sVzendframework/zend-view
p72
(dp73
sVzendframework/zend-authentication
p74
(dp75
sVbower-asset/punycode
p76
(dp77
sVzendframework/zend-filter
p78
(dp79
sVpsr/http-message
p80
(dp81
sVzendframework/zend-stdlib
p82
(dp83
sVzendframework/zend-inputfilter
p84
(dp85
sVcebe/markdown
p86
(dp87
sVzfcampus/zf-configuration
p88
(dp89
sVralouphie/getallheaders
p90
(dp91
sVwatoki/smokey
p92
(dp93
sVzfcampus/zf-api-problem
p94
(dp95
sVzfcampus/zf-rpc
p96
(dp97
sVzendframework/zend-loader
p98
(dp99
sVzendframework/zend-escaper
p100
(dp101
sVzendframework/zend-psr7bridge
p102
(dp103
sVguzzlehttp/psr7
p104
(dp105
sVzendframework/zend-mvc
p106
(dp107
sVguzzlehttp/promises
p108
(dp109
sVzfcampus/zf-mvc-auth
p110
(dp111
sVzendframework/zend-validator
p112
(dp113
sVpsr/container
p114
(dp115
sVzfcampus/zf-rest
p116
(dp117
sVzfcampus/zf-apigility-admin
p118
(dp119
sVyiisoft/yii2
p120
(dp121
sVzendframework/zend-http
p122
(dp123
sVzfcampus/zf-oauth2
p124
(dp125
sVbshaffer/oauth2-server-php
p126
(dp127
sVpsr/http-factory
p128
(dp129
sVprintnode/printnode-php
p130
(dp131
sVzendframework/zend-diactoros
p132
(dp133
sVzendframework/zend-permissions-acl
p134
(dp135
sVzendframework/zend-uri
p136
(dp137
sVzendframework/zend-paginator
p138
(dp139
sVwatoki/reflect
p140
(dp141
sVguzzlehttp/guzzle
p142
(dp143
sVparfumix/table-manager
p144
(dp145
sVyiisoft/yii2-composer
p146
(dp147
sVzfcampus/zf-apigility-admin-ui
p148
(dp149
sVzfcampus/zf-content-validation
p150
(dp151
sVzfcampus/zf-versioning
p152
(dp153
sVzendframework/zend-code
p154
(dp155
sVzfcampus/zf-content-negotiation
p156
(dp157
sVrecipe/recipe
p158
(dp159
sVzendframework/zend-servicemanager
p160
(dp161
sVparagonie/random_compat
p162
(dp163
sVzendframework/zend-math
p164
(dp165
sVstarise/solero
p166
(dp167
sVdaverandom/program-executor
p168
(dp169
sVwatoki/stores
p170
(dp171
sVnikic/php-parser
p172
(dp173
sVcomposer/installers
p174
(dp175
ssS'graph'
p176
(dp177
sS'_pred'
p178
(dp179
g12
(dp180
g118
(dp181
sg36
(dp182
sg116
(dp183
ssg14
(dp184
g140
(dp185
sg170
(dp186
ssg16
(dp187
g94
(dp188
sg12
(dp189
sg96
(dp190
sg106
(dp191
sg110
(dp192
sg116
(dp193
sg118
(dp194
sg72
(dp195
sg156
(dp196
sg150
(dp197
sg44
(dp198
sg36
(dp199
sg152
(dp200
ssg18
(dp201
g44
(dp202
sg88
(dp203
ssg20
(dp204
g120
(dp205
ssg22
(dp206
g118
(dp207
sg36
(dp208
ssg24
(dp209
sg26
(dp210
g106
(dp211
ssg28
(dp212
sg30
(dp213
g36
(dp214
ssg32
(dp215
g94
(dp216
sg156
(dp217
ssg34
(dp218
g120
(dp219
ssg36
(dp220
g118
(dp221
ssg38
(dp222
sg40
(dp223
g42
(dp224
sg106
(dp225
sg160
(dp226
sg112
(dp227
ssg42
(dp228
g124
(dp229
ssg44
(dp230
g118
(dp231
sg88
(dp232
sg152
(dp233
ssg46
(dp234
g120
(dp235
ssg48
(dp236
sg50
(dp237
g106
(dp238
ssg52
(dp239
g110
(dp240
ssg54
(dp241
sg56
(dp242
g70
(dp243
ssg58
(dp244
g118
(dp245
sg12
(dp246
sg106
(dp247
sg50
(dp248
ssg60
(dp249
g120
(dp250
ssg62
(dp251
g24
(dp252
ssg64
(dp253
sg66
(dp254
sg68
(dp255
g12
(dp256
ssg70
(dp257
g48
(dp258
ssg72
(dp259
g94
(dp260
sg12
(dp261
sg96
(dp262
sg148
(dp263
sg118
(dp264
sg156
(dp265
ssg74
(dp266
g110
(dp267
ssg76
(dp268
g120
(dp269
ssg78
(dp270
g84
(dp271
sg12
(dp272
sg150
(dp273
sg118
(dp274
sg156
(dp275
ssg80
(dp276
g102
(dp277
sg104
(dp278
sg132
(dp279
sg128
(dp280
ssg82
(dp281
g12
(dp282
sg18
(dp283
sg116
(dp284
sg30
(dp285
sg150
(dp286
sg42
(dp287
sg44
(dp288
sg112
(dp289
sg58
(dp290
sg72
(dp291
sg74
(dp292
sg84
(dp293
sg50
(dp294
sg88
(dp295
sg96
(dp296
sg106
(dp297
sg110
(dp298
sg26
(dp299
sg118
(dp300
sg122
(dp301
sg138
(dp302
sg156
(dp303
sg78
(dp304
sg36
(dp305
sg152
(dp306
ssg84
(dp307
g118
(dp308
sg50
(dp309
sg150
(dp310
ssg86
(dp311
g120
(dp312
ssg88
(dp313
g118
(dp314
ssg90
(dp315
g104
(dp316
ssg92
(dp317
g14
(dp318
ssg94
(dp319
g12
(dp320
sg96
(dp321
sg110
(dp322
sg116
(dp323
sg118
(dp324
sg156
(dp325
sg124
(dp326
sg150
(dp327
sg36
(dp328
ssg96
(dp329
g118
(dp330
sg36
(dp331
ssg98
(dp332
g72
(dp333
sg122
(dp334
sg36
(dp335
ssg100
(dp336
g136
(dp337
ssg102
(dp338
g106
(dp339
ssg104
(dp340
g142
(dp341
ssg106
(dp342
g94
(dp343
sg12
(dp344
sg96
(dp345
sg110
(dp346
sg116
(dp347
sg118
(dp348
sg156
(dp349
sg124
(dp350
sg150
(dp351
sg36
(dp352
sg152
(dp353
ssg108
(dp354
g142
(dp355
ssg110
(dp356
g118
(dp357
sg36
(dp358
sg116
(dp359
ssg112
(dp360
g150
(dp361
sg118
(dp362
sg156
(dp363
sg122
(dp364
sg136
(dp365
sg84
(dp366
ssg114
(dp367
g40
(dp368
sg18
(dp369
ssg116
(dp370
g118
(dp371
sg36
(dp372
ssg118
(dp373
sg120
(dp374
g38
(dp375
ssg122
(dp376
g94
(dp377
sg12
(dp378
sg96
(dp379
sg102
(dp380
sg110
(dp381
sg118
(dp382
sg156
(dp383
sg124
(dp384
sg150
(dp385
sg152
(dp386
ssg124
(dp387
g118
(dp388
sg36
(dp389
sg110
(dp390
ssg126
(dp391
g124
(dp392
ssg128
(dp393
g132
(dp394
ssg130
(dp395
g66
(dp396
ssg132
(dp397
g102
(dp398
ssg134
(dp399
g110
(dp400
ssg136
(dp401
g12
(dp402
sg122
(dp403
ssg138
(dp404
g12
(dp405
sg36
(dp406
sg116
(dp407
ssg140
(dp408
g170
(dp409
ssg142
(dp410
g66
(dp411
ssg144
(dp412
sg146
(dp413
g120
(dp414
ssg148
(dp415
g118
(dp416
ssg150
(dp417
g118
(dp418
sg36
(dp419
ssg152
(dp420
g118
(dp421
sg36
(dp422
ssg154
(dp423
g118
(dp424
ssg156
(dp425
g96
(dp426
sg110
(dp427
sg116
(dp428
sg118
(dp429
sg124
(dp430
sg150
(dp431
sg36
(dp432
ssg158
(dp433
sg160
(dp434
g150
(dp435
sg96
(dp436
sg106
(dp437
sg110
(dp438
sg118
(dp439
sg156
(dp440
sg124
(dp441
sg84
(dp442
sg36
(dp443
sg152
(dp444
ssg162
(dp445
g164
(dp446
ssg164
(dp447
g42
(dp448
ssg166
(dp449
sg168
(dp450
sg170
(dp451
g54
(dp452
ssg172
(dp453
g140
(dp454
ssg174
(dp455
g24
(dp456
sg166
(dp457
sssS'_succ'
p458
(dp459
g12
(dp460
Vzfcampus/zf-api-problem
p461
g320
sVzendframework/zend-http
p462
g378
sVzendframework/zend-hydrator
p463
g246
sVzendframework/zend-mvc
p464
g344
sg68
g256
sVzendframework/zend-view
p465
g261
sVzendframework/zend-filter
p466
g272
sg136
g402
sVzendframework/zend-stdlib
p467
g282
sVzendframework/zend-eventmanager
p468
g189
sg138
g405
ssg14
(dp469
g92
g318
ssg16
(dp470
sg18
(dp471
Vzendframework/zend-stdlib
p472
g283
sg114
g369
ssg20
(dp473
sg22
(dp474
sg24
(dp475
g174
g456
sg62
g252
ssg26
(dp476
Vzendframework/zend-stdlib
p477
g299
ssg28
(dp478
sg30
(dp479
Vzendframework/zend-stdlib
p480
g285
ssg32
(dp481
sg34
(dp482
sg36
(dp483
Vzfcampus/zf-api-problem
p484
g328
sVzfcampus/zf-hal
p485
g182
sVzfcampus/zf-rpc
p486
g331
sVzendframework/zend-loader
p487
g335
sVzendframework/zend-mvc
p488
g352
sVzfcampus/zf-apigility-provider
p489
g208
sVzfcampus/zf-mvc-auth
p490
g358
sVzfcampus/zf-rest
p491
g372
sg30
g214
sVzfcampus/zf-content-negotiation
p492
g432
sVzendframework/zend-servicemanager
p493
g443
sVzfcampus/zf-oauth2
p494
g389
sVzendframework/zend-stdlib
p495
g305
sVzendframework/zend-eventmanager
p496
g199
sVzfcampus/zf-content-validation
p497
g419
sVzendframework/zend-paginator
p498
g406
sVzfcampus/zf-versioning
p499
g422
ssg38
(dp500
g120
g375
ssg40
(dp501
Vpsr/container
p502
g368
ssg42
(dp503
g164
g448
sVzendframework/zend-stdlib
p504
g287
sVcontainer-interop/container-interop
p505
g224
ssg44
(dp506
Vzendframework/zend-stdlib
p507
g288
sVzendframework/zend-eventmanager
p508
g198
sg18
g202
ssg46
(dp509
sg48
(dp510
g70
g258
ssg50
(dp511
Vzendframework/zend-hydrator
p512
g248
sVzendframework/zend-inputfilter
p513
g309
sVzendframework/zend-stdlib
p514
g294
ssg52
(dp515
sg54
(dp516
g170
g452
ssg56
(dp517
sg58
(dp518
Vzendframework/zend-stdlib
p519
g290
ssg60
(dp520
sg62
(dp521
sg64
(dp522
sg66
(dp523
g130
g396
sg142
g411
ssg68
(dp524
sg70
(dp525
g56
g243
ssg72
(dp526
Vzendframework/zend-loader
p527
g333
sVzendframework/zend-stdlib
p528
g291
sVzendframework/zend-eventmanager
p529
g195
ssg74
(dp530
Vzendframework/zend-stdlib
p531
g292
ssg76
(dp532
sg78
(dp533
Vzendframework/zend-stdlib
p534
g304
ssg80
(dp535
sg82
(dp536
sg84
(dp537
Vzendframework/zend-validator
p538
g366
sVzendframework/zend-servicemanager
p539
g442
sVzendframework/zend-stdlib
p540
g293
sVzendframework/zend-filter
p541
g271
ssg86
(dp542
sg88
(dp543
Vzendframework/zend-modulemanager
p544
g232
sVzendframework/zend-stdlib
p545
g295
sVzendframework/zend-config
p546
g203
ssg90
(dp547
sg92
(dp548
sg94
(dp549
Vzendframework/zend-view
p550
g260
sVzendframework/zend-mvc
p551
g343
sVzendframework/zend-http
p552
g377
sg32
g216
sVzendframework/zend-eventmanager
p553
g188
ssg96
(dp554
Vzfcampus/zf-api-problem
p555
g321
sVzendframework/zend-mvc
p556
g345
sVzendframework/zend-http
p557
g379
sVzendframework/zend-view
p558
g262
sVzfcampus/zf-content-negotiation
p559
g426
sVzendframework/zend-servicemanager
p560
g436
sVzendframework/zend-stdlib
p561
g296
sVzendframework/zend-eventmanager
p562
g190
ssg98
(dp563
sg100
(dp564
sg102
(dp565
g132
g398
sVzendframework/zend-http
p566
g380
sg80
g277
ssg104
(dp567
Vpsr/http-message
p568
g278
sg90
g316
ssg106
(dp569
Vzendframework/zend-eventmanager
p570
g191
sg102
g339
sg26
g211
sVzendframework/zend-hydrator
p571
g247
sVzendframework/zend-servicemanager
p572
g437
sVzendframework/zend-stdlib
p573
g297
sVcontainer-interop/container-interop
p574
g225
sg50
g238
ssg108
(dp575
sg110
(dp576
Vzfcampus/zf-api-problem
p577
g322
sg52
g240
sVzendframework/zend-eventmanager
p578
g192
sg74
g267
sVzendframework/zend-mvc
p579
g346
sVzfcampus/zf-content-negotiation
p580
g427
sVzendframework/zend-http
p581
g381
sVzfcampus/zf-oauth2
p582
g390
sVzendframework/zend-stdlib
p583
g298
sVzendframework/zend-servicemanager
p584
g438
sg134
g400
ssg112
(dp585
Vzendframework/zend-stdlib
p586
g289
sg40
g227
ssg114
(dp587
sg116
(dp588
Vzfcampus/zf-api-problem
p589
g323
sVzfcampus/zf-hal
p590
g183
sVzendframework/zend-mvc
p591
g347
sVzfcampus/zf-mvc-auth
p592
g359
sVzfcampus/zf-content-negotiation
p593
g428
sVzendframework/zend-stdlib
p594
g284
sVzendframework/zend-eventmanager
p595
g193
sVzendframework/zend-paginator
p596
g407
ssg118
(dp597
g12
g181
sg116
g371
sg122
g382
sg16
g194
sg150
g418
sg44
g231
sg112
g362
sg58
g245
sg72
g264
sg82
g300
sg84
g308
sg88
g314
sg94
g324
sg96
g330
sg148
g416
sg106
g348
sg110
g357
sg160
g439
sg124
g388
sg22
g207
sg156
g429
sg78
g274
sg154
g424
sg36
g221
sg152
g421
ssg120
(dp598
g60
g250
sg20
g205
sg34
g219
sg86
g312
sg146
g414
sg76
g269
sg46
g235
ssg122
(dp599
g98
g334
sVzendframework/zend-validator
p600
g364
sVzendframework/zend-uri
p601
g403
sVzendframework/zend-stdlib
p602
g301
ssg124
(dp603
Vzfcampus/zf-api-problem
p604
g326
sVzendframework/zend-servicemanager
p605
g441
sVzendframework/zend-mvc
p606
g350
sVzfcampus/zf-content-negotiation
p607
g430
sVzendframework/zend-http
p608
g384
sg126
g392
sg42
g229
ssg126
(dp609
sg128
(dp610
Vpsr/http-message
p611
g280
ssg130
(dp612
sg132
(dp613
Vpsr/http-message
p614
g279
sg128
g394
ssg134
(dp615
sg136
(dp616
Vzendframework/zend-validator
p617
g365
sg100
g337
ssg138
(dp618
Vzendframework/zend-stdlib
p619
g302
ssg140
(dp620
Vwatoki/collections
p621
g185
sg172
g454
ssg142
(dp622
g108
g355
sg104
g341
ssg144
(dp623
sg146
(dp624
sg148
(dp625
Vzendframework/zend-view
p626
g263
ssg150
(dp627
Vzfcampus/zf-api-problem
p628
g327
sVzendframework/zend-validator
p629
g361
sVzendframework/zend-eventmanager
p630
g197
sVzendframework/zend-mvc
p631
g351
sVzendframework/zend-http
p632
g385
sVzfcampus/zf-content-negotiation
p633
g431
sVzendframework/zend-filter
p634
g273
sVzendframework/zend-stdlib
p635
g286
sVzendframework/zend-servicemanager
p636
g435
sVzendframework/zend-inputfilter
p637
g310
ssg152
(dp638
Vzendframework/zend-mvc
p639
g353
sVzendframework/zend-http
p640
g386
sVzendframework/zend-servicemanager
p641
g444
sVzendframework/zend-stdlib
p642
g306
sVzendframework/zend-eventmanager
p643
g200
sVzendframework/zend-modulemanager
p644
g233
ssg154
(dp645
sg156
(dp646
Vzfcampus/zf-api-problem
p647
g325
sVzendframework/zend-validator
p648
g363
sVzendframework/zend-eventmanager
p649
g196
sVzendframework/zend-mvc
p650
g349
sVzendframework/zend-http
p651
g383
sVzendframework/zend-view
p652
g265
sVzendframework/zend-filter
p653
g275
sVzendframework/zend-stdlib
p654
g303
sVzendframework/zend-servicemanager
p655
g440
sVzendframework/zend-json
p656
g217
ssg158
(dp657
sg160
(dp658
Vcontainer-interop/container-interop
p659
g226
ssg162
(dp660
sg164
(dp661
g162
g446
ssg166
(dp662
Vcomposer/installers
p663
g457
ssg168
(dp664
sg170
(dp665
g140
g409
sg14
g186
ssg172
(dp666
sg174
(dp667
ssS'_adj'
p668
g459
sS'adjlist_outer_dict_factory'
p669
g7
sb.