ccopy_reg
_reconstructor
p0
(cnetworkx.classes.digraph
DiGraph
p1
c__builtin__
object
p2
Ntp3
Rp4
(dp5
S'adjlist_inner_dict_factory'
p6
c__builtin__
dict
p7
sS'node_dict_factory'
p8
g7
sS'edge_attr_dict_factory'
p9
g7
sS'_node'
p10
(dp11
Vrails-html-sanitizer
p12
(dp13
sVactioncable
p14
(dp15
sVless
p16
(dp17
sVffi
p18
(dp19
sVrouge
p20
(dp21
sVforwardable-extended
p22
(dp23
sVpronto
p24
(dp25
sVmini_mime
p26
(dp27
sVruby_dep
p28
(dp29
sVsass-listen
p30
(dp31
sVtzinfo
p32
(dp33
sVmail
p34
(dp35
sVactionview
p36
(dp37
sS'rails_db_views'
p38
(dp39
sVrake
p40
(dp41
sVjekyll
p42
(dp43
sVrb-inotify
p44
(dp45
sVhttparty
p46
(dp47
sVmini_portile2
p48
(dp49
sVrack-test
p50
(dp51
sVcommonjs
p52
(dp53
sVresponders
p54
(dp55
sVgitlab
p56
(dp57
sVaddressable
p58
(dp59
sS'ttrack'
p60
(dp61
sVactionpack
p62
(dp63
sVrack
p64
(dp65
sS'keyhit_pain'
p66
(dp67
sS'pronto-json'
p68
(dp69
sVsafe_yaml
p70
(dp71
sVactivemodel
p72
(dp73
sVrails-dom-testing
p74
(dp75
sS'batsignal'
p76
(dp77
sVthread_safe
p78
(dp79
sVloofah
p80
(dp81
sVglobalid
p82
(dp83
sVactivestorage
p84
(dp85
sVmethod_source
p86
(dp87
sVoj
p88
(dp89
sVactiverecord
p90
(dp91
sVthor
p92
(dp93
sVunicode-display_width
p94
(dp95
sVcrass
p96
(dp97
sVnokogiri
p98
(dp99
sVmulti_xml
p100
(dp101
sVeventmachine
p102
(dp103
sVactivejob
p104
(dp105
sVfaraday
p106
(dp107
sVcolorize
p108
(dp109
sVrb-fsevent
p110
(dp111
sVerubi
p112
(dp113
sVterminal-table
p114
(dp115
sVem-websocket
p116
(dp117
sVarel
p118
(dp119
sVcolorator
p120
(dp121
sVbundler
p122
(dp123
sVrails
p124
(dp125
sVpathutil
p126
(dp127
sVlisten
p128
(dp129
sVkramdown
p130
(dp131
sVsprockets
p132
(dp133
sVi18n
p134
(dp135
sVjekyll-watch
p136
(dp137
sVwebsocket-extensions
p138
(dp139
sVrugged
p140
(dp141
sVliquid
p142
(dp143
sS'tingyun_rpm'
p144
(dp145
sVconcurrent-ruby
p146
(dp147
sVjekyll-sass-converter
p148
(dp149
sVrake-hooks
p150
(dp151
sVoctokit
p152
(dp153
sVmarcel
p154
(dp155
sS'jekyll-less'
p156
(dp157
sVmimemagic
p158
(dp159
sVactivesupport
p160
(dp161
sVnio4r
p162
(dp163
sVrainbow
p164
(dp165
sVpublic_suffix
p166
(dp167
sVsprockets-rails
p168
(dp169
sVsqlite3
p170
(dp171
sVbcrypt
p172
(dp173
sVwebsocket-driver
p174
(dp175
sVwarden
p176
(dp177
sS'ubbparser'
p178
(dp179
sVactionmailer
p180
(dp181
sVrailties
p182
(dp183
sVorm_adapter
p184
(dp185
sVmultipart-post
p186
(dp187
sVsass
p188
(dp189
sVminitest
p190
(dp191
sVbuilder
p192
(dp193
sS'devise-no-session'
p194
(dp195
sVsawyer
p196
(dp197
sVmercenary
p198
(dp199
sVhttp_parser.rb
p200
(dp201
ssS'graph'
p202
(dp203
sS'_pred'
p204
(dp205
g12
(dp206
g36
(dp207
sg62
(dp208
ssg14
(dp209
g124
(dp210
ssg16
(dp211
g156
(dp212
ssg18
(dp213
g44
(dp214
ssg20
(dp215
g42
(dp216
ssg22
(dp217
g126
(dp218
ssg24
(dp219
g68
(dp220
ssg26
(dp221
g34
(dp222
ssg28
(dp223
g128
(dp224
ssg30
(dp225
g188
(dp226
ssg32
(dp227
g160
(dp228
ssg34
(dp229
g180
(dp230
ssg36
(dp231
g180
(dp232
sg62
(dp233
sg124
(dp234
ssg38
(dp235
sg40
(dp236
g182
(dp237
sg150
(dp238
ssg42
(dp239
g156
(dp240
ssg44
(dp241
g30
(dp242
sg128
(dp243
ssg46
(dp244
g24
(dp245
sg56
(dp246
ssg48
(dp247
g98
(dp248
ssg50
(dp249
g62
(dp250
ssg52
(dp251
g16
(dp252
ssg54
(dp253
g194
(dp254
ssg56
(dp255
g24
(dp256
ssg58
(dp257
g42
(dp258
sg196
(dp259
ssg60
(dp260
sg62
(dp261
g14
(dp262
sg124
(dp263
sg168
(dp264
sg84
(dp265
sg180
(dp266
sg182
(dp267
sg54
(dp268
ssg64
(dp269
g132
(dp270
sg62
(dp271
sg176
(dp272
sg50
(dp273
ssg66
(dp274
sg68
(dp275
sg70
(dp276
g42
(dp277
ssg72
(dp278
g90
(dp279
sg124
(dp280
ssg74
(dp281
g180
(dp282
sg36
(dp283
sg62
(dp284
ssg76
(dp285
sg78
(dp286
g32
(dp287
ssg80
(dp288
g12
(dp289
ssg82
(dp290
g104
(dp291
ssg84
(dp292
g124
(dp293
ssg86
(dp294
g182
(dp295
ssg88
(dp296
g68
(dp297
ssg90
(dp298
g84
(dp299
sg124
(dp300
ssg92
(dp301
g24
(dp302
sg182
(dp303
ssg94
(dp304
g114
(dp305
ssg96
(dp306
g80
(dp307
ssg98
(dp308
g80
(dp309
sg74
(dp310
ssg100
(dp311
g46
(dp312
ssg102
(dp313
g116
(dp314
ssg104
(dp315
g180
(dp316
sg124
(dp317
ssg106
(dp318
g196
(dp319
ssg108
(dp320
g66
(dp321
ssg110
(dp322
g30
(dp323
sg128
(dp324
ssg112
(dp325
g36
(dp326
ssg114
(dp327
g56
(dp328
ssg116
(dp329
g42
(dp330
ssg118
(dp331
g90
(dp332
ssg120
(dp333
g42
(dp334
ssg122
(dp335
g124
(dp336
ssg124
(dp337
g38
(dp338
ssg126
(dp339
g42
(dp340
ssg128
(dp341
g136
(dp342
ssg130
(dp343
g42
(dp344
ssg132
(dp345
g168
(dp346
ssg134
(dp347
g42
(dp348
sg160
(dp349
ssg136
(dp350
g42
(dp351
ssg138
(dp352
g174
(dp353
ssg140
(dp354
g24
(dp355
ssg142
(dp356
g42
(dp357
ssg144
(dp358
sg146
(dp359
g134
(dp360
sg132
(dp361
sg160
(dp362
ssg148
(dp363
g42
(dp364
ssg150
(dp365
g38
(dp366
ssg152
(dp367
g24
(dp368
ssg154
(dp369
g84
(dp370
ssg156
(dp371
sg158
(dp372
g154
(dp373
ssg160
(dp374
g62
(dp375
sg72
(dp376
sg82
(dp377
sg90
(dp378
sg124
(dp379
sg74
(dp380
sg168
(dp381
sg104
(dp382
sg36
(dp383
sg182
(dp384
ssg162
(dp385
g14
(dp386
ssg164
(dp387
g24
(dp388
ssg166
(dp389
g58
(dp390
ssg168
(dp391
g124
(dp392
ssg170
(dp393
g60
(dp394
ssg172
(dp395
g194
(dp396
ssg174
(dp397
g14
(dp398
ssg176
(dp399
g194
(dp400
ssg178
(dp401
sg180
(dp402
g124
(dp403
ssg182
(dp404
g194
(dp405
sg124
(dp406
sg54
(dp407
ssg184
(dp408
g194
(dp409
ssg186
(dp410
g106
(dp411
ssg188
(dp412
g148
(dp413
ssg190
(dp414
g160
(dp415
ssg192
(dp416
g36
(dp417
ssg194
(dp418
sg196
(dp419
g152
(dp420
ssg198
(dp421
g42
(dp422
ssg200
(dp423
g116
(dp424
sssS'_succ'
p425
(dp426
g12
(dp427
g80
g289
ssg14
(dp428
g174
g398
sVactionpack
p429
g262
sg162
g386
ssg16
(dp430
g52
g252
ssg18
(dp431
sg20
(dp432
sg22
(dp433
sg24
(dp434
g164
g388
sg46
g245
sg56
g256
sg152
g368
sVthor
p435
g302
sg140
g355
ssg26
(dp436
sg28
(dp437
sg30
(dp438
Vrb-inotify
p439
g242
sVrb-fsevent
p440
g323
ssg32
(dp441
g78
g287
ssg34
(dp442
g26
g222
ssg36
(dp443
g112
g326
sg192
g417
sVactivesupport
p444
g383
sVrails-dom-testing
p445
g283
sVrails-html-sanitizer
p446
g207
ssg38
(dp447
g124
g338
sg150
g366
ssg40
(dp448
sg42
(dp449
g142
g357
sg130
g344
sg116
g330
sg120
g334
sg198
g422
sVaddressable
p450
g258
sg20
g216
sVi18n
p451
g348
sg126
g340
sg148
g364
sg136
g351
sg70
g277
ssg44
(dp452
g18
g214
ssg46
(dp453
g100
g312
ssg48
(dp454
sg50
(dp455
Vrack
p456
g273
ssg52
(dp457
sg54
(dp458
Vactionpack
p459
g268
sVrailties
p460
g407
ssg56
(dp461
Vhttparty
p462
g246
sg114
g328
ssg58
(dp463
g166
g390
ssg60
(dp464
g170
g394
ssg62
(dp465
g12
g208
sg74
g284
sg36
g233
sVrack
p466
g271
sVactivesupport
p467
g375
sg50
g250
ssg64
(dp468
sg66
(dp469
g108
g321
ssg68
(dp470
g24
g220
sg88
g297
ssg70
(dp471
sg72
(dp472
Vactivesupport
p473
g376
ssg74
(dp474
g98
g310
sVactivesupport
p475
g380
ssg76
(dp476
sg78
(dp477
sg80
(dp478
Vnokogiri
p479
g309
sg96
g307
ssg82
(dp480
Vactivesupport
p481
g377
ssg84
(dp482
Vactiverecord
p483
g299
sVactionpack
p484
g265
sg154
g370
ssg86
(dp485
sg88
(dp486
sg90
(dp487
g118
g332
sVactivemodel
p488
g279
sVactivesupport
p489
g378
ssg92
(dp490
sg94
(dp491
sg96
(dp492
sg98
(dp493
g48
g248
ssg100
(dp494
sg102
(dp495
sg104
(dp496
Vactivesupport
p497
g382
sg82
g291
ssg106
(dp498
g186
g411
ssg108
(dp499
sg110
(dp500
sg112
(dp501
sg114
(dp502
g94
g305
ssg116
(dp503
g102
g314
sg200
g424
ssg118
(dp504
sg120
(dp505
sg122
(dp506
sg124
(dp507
Vactionview
p508
g234
sg14
g210
sg72
g280
sg90
g300
sg122
g336
sg168
g392
sg104
g317
sg84
g293
sg180
g403
sVactionpack
p509
g263
sVrailties
p510
g406
sVactivesupport
p511
g379
ssg126
(dp512
g22
g218
ssg128
(dp513
g28
g224
sg44
g243
sg110
g324
ssg130
(dp514
sg132
(dp515
Vconcurrent-ruby
p516
g361
sVrack
p517
g270
ssg134
(dp518
Vconcurrent-ruby
p519
g360
ssg136
(dp520
g128
g342
ssg138
(dp521
sg140
(dp522
sg142
(dp523
sg144
(dp524
sg146
(dp525
sg148
(dp526
g188
g413
ssg150
(dp527
Vrake
p528
g238
ssg152
(dp529
g196
g420
ssg154
(dp530
g158
g373
ssg156
(dp531
g42
g240
sg16
g212
ssg158
(dp532
sg160
(dp533
g134
g349
sg190
g415
sg146
g362
sg32
g228
ssg162
(dp534
sg164
(dp535
sg166
(dp536
sg168
(dp537
g132
g346
sVactionpack
p538
g264
sVactivesupport
p539
g381
ssg170
(dp540
sg172
(dp541
sg174
(dp542
g138
g353
ssg176
(dp543
g64
g272
ssg178
(dp544
sg180
(dp545
g34
g230
sVactionview
p546
g232
sVactionpack
p547
g266
sVactivejob
p548
g316
sVrails-dom-testing
p549
g282
ssg182
(dp550
g86
g295
sg40
g237
sg62
g267
sg160
g384
sg92
g303
ssg184
(dp551
sg186
(dp552
sg188
(dp553
g30
g226
ssg190
(dp554
sg192
(dp555
sg194
(dp556
g182
g405
sg184
g409
sg172
g396
sg176
g400
sg54
g254
ssg196
(dp557
g106
g319
sg58
g259
ssg198
(dp558
sg200
(dp559
ssS'_adj'
p560
g426
sS'adjlist_outer_dict_factory'
p561
g7
sb.