ccopy_reg
_reconstructor
p0
(cnetworkx.classes.digraph
DiGraph
p1
c__builtin__
object
p2
Ntp3
Rp4
(dp5
S'adjlist_inner_dict_factory'
p6
c__builtin__
dict
p7
sS'node_dict_factory'
p8
g7
sS'edge_attr_dict_factory'
p9
g7
sS'_node'
p10
(dp11
Vuc-dom
p12
(dp13
ssS'graph'
p14
(dp15
sS'_pred'
p16
(dp17
g12
(dp18
ssS'_succ'
p19
(dp20
g12
(dp21
ssS'_adj'
p22
g20
sS'adjlist_outer_dict_factory'
p23
g7
sb.