ccopy_reg
_reconstructor
p0
(cnetworkx.classes.digraph
DiGraph
p1
c__builtin__
object
p2
Ntp3
Rp4
(dp5
S'adjlist_inner_dict_factory'
p6
c__builtin__
dict
p7
sS'node_dict_factory'
p8
g7
sS'edge_attr_dict_factory'
p9
g7
sS'_node'
p10
(dp11
S"('davedevelopment/guzzle-wsse-auth-plugin', 'v1.0.0')"
p12
(dp13
sS"('prestashop/ps_wirepayment', 'v1.0.9')"
p14
(dp15
ssS'graph'
p16
(dp17
sS'_pred'
p18
(dp19
g12
(dp20
sg14
(dp21
ssS'_succ'
p22
(dp23
g12
(dp24
sg14
(dp25
ssS'_adj'
p26
g23
sS'adjlist_outer_dict_factory'
p27
g7
sb.